GAS LISTING /tmp/ccD8xznD.s 			page 1


   1              		.file	"ABIWrappers.cpp"
   2              		.option pic
   3              		.option norelax
   4              		.text
   5              	.Ltext0:
   6              		.align	2
   7              		.globl	_ZN3ABI15memAllocWrapperEm
   9              	_ZN3ABI15memAllocWrapperEm:
  10              	.LFB29:
  11              		.file 1 "src/ABIWrappers.cpp"
   1:src/ABIWrappers.cpp **** //
   2:src/ABIWrappers.cpp **** // Created by os on 6/24/24.
   3:src/ABIWrappers.cpp **** //
   4:src/ABIWrappers.cpp **** #include "../h/ABIWrappers.hpp"
   5:src/ABIWrappers.cpp **** #include "../h/tcb.hpp"
   6:src/ABIWrappers.cpp **** #include "../h/Sem.hpp"
   7:src/ABIWrappers.cpp **** #include "../lib/console.h"
   8:src/ABIWrappers.cpp **** #include "../lib/mem.h"
   9:src/ABIWrappers.cpp **** 
  10:src/ABIWrappers.cpp **** void ABI::memAllocWrapper(uint64 a1) {
  12              		.loc 1 10 38
  13              		.cfi_startproc
  14              	.LVL0:
  15 0000 130101FF 		addi	sp,sp,-16
  16              		.cfi_def_cfa_offset 16
  17 0004 23341100 		sd	ra,8(sp)
  18 0008 23308100 		sd	s0,0(sp)
  19              		.cfi_offset 1, -8
  20              		.cfi_offset 8, -16
  21 000c 13040101 		addi	s0,sp,16
  22              		.cfi_def_cfa 8, 0
  11:src/ABIWrappers.cpp ****     uint64 size = a1;
  23              		.loc 1 11 5
  24              	.LVL1:
  12:src/ABIWrappers.cpp ****     MemoryAllocator::mem_alloc(size);
  25              		.loc 1 12 5
  26              		.loc 1 12 31 is_stmt 0
  27 0010 97000000 		call	_ZN15MemoryAllocator9mem_allocEm@plt
  27      E7800000 
  28              	.LVL2:
  13:src/ABIWrappers.cpp ****     //__mem_alloc(size);
  14:src/ABIWrappers.cpp **** }
  29              		.loc 1 14 1
  30 0018 83308100 		ld	ra,8(sp)
  31              		.cfi_restore 1
  32 001c 03340100 		ld	s0,0(sp)
  33              		.cfi_restore 8
  34              		.cfi_def_cfa 2, 16
  35 0020 13010101 		addi	sp,sp,16
  36              		.cfi_def_cfa_offset 0
  37 0024 67800000 		jr	ra
  38              		.cfi_endproc
  39              	.LFE29:
  41              		.align	2
  42              		.globl	_ZN3ABI14memFreeWrapperEm
  44              	_ZN3ABI14memFreeWrapperEm:
  45              	.LFB30:
GAS LISTING /tmp/ccD8xznD.s 			page 2


  15:src/ABIWrappers.cpp **** 
  16:src/ABIWrappers.cpp **** void ABI::memFreeWrapper(uint64 a1) {
  46              		.loc 1 16 37 is_stmt 1
  47              		.cfi_startproc
  48              	.LVL3:
  49 0028 130101FF 		addi	sp,sp,-16
  50              		.cfi_def_cfa_offset 16
  51 002c 23341100 		sd	ra,8(sp)
  52 0030 23308100 		sd	s0,0(sp)
  53              		.cfi_offset 1, -8
  54              		.cfi_offset 8, -16
  55 0034 13040101 		addi	s0,sp,16
  56              		.cfi_def_cfa 8, 0
  17:src/ABIWrappers.cpp ****     MemoryAllocator::mem_free((void *) a1);
  57              		.loc 1 17 5
  58              		.loc 1 17 30 is_stmt 0
  59 0038 97000000 		call	_ZN15MemoryAllocator8mem_freeEPv@plt
  59      E7800000 
  60              	.LVL4:
  18:src/ABIWrappers.cpp ****     //__mem_free((void*)a1);
  19:src/ABIWrappers.cpp **** }
  61              		.loc 1 19 1
  62 0040 83308100 		ld	ra,8(sp)
  63              		.cfi_restore 1
  64 0044 03340100 		ld	s0,0(sp)
  65              		.cfi_restore 8
  66              		.cfi_def_cfa 2, 16
  67 0048 13010101 		addi	sp,sp,16
  68              		.cfi_def_cfa_offset 0
  69 004c 67800000 		jr	ra
  70              		.cfi_endproc
  71              	.LFE30:
  73              		.align	2
  74              		.globl	_ZN3ABI19threadCreateWrapperEmmmm
  76              	_ZN3ABI19threadCreateWrapperEmmmm:
  77              	.LFB31:
  20:src/ABIWrappers.cpp **** //int thread_create ( thread_t* handle, void(*start_routine)(void*), void* arg, void* stackSpace);
  21:src/ABIWrappers.cpp **** void ABI::threadCreateWrapper(uint64 handle, uint64 body, uint64 arg, uint64 stackSpace) {
  78              		.loc 1 21 90 is_stmt 1
  79              		.cfi_startproc
  80              	.LVL5:
  81 0050 130101FF 		addi	sp,sp,-16
  82              		.cfi_def_cfa_offset 16
  83 0054 23341100 		sd	ra,8(sp)
  84 0058 23308100 		sd	s0,0(sp)
  85              		.cfi_offset 1, -8
  86              		.cfi_offset 8, -16
  87 005c 13040101 		addi	s0,sp,16
  88              		.cfi_def_cfa 8, 0
  22:src/ABIWrappers.cpp ****     TCB** myHandle = (TCB**) handle;
  89              		.loc 1 22 5
  90              	.LVL6:
  23:src/ABIWrappers.cpp ****     TCB::threadCreate(myHandle,
  91              		.loc 1 23 5
  92              		.loc 1 23 22 is_stmt 0
  93 0060 97000000 		call	_ZN3TCB12threadCreateEPPS_PFvPvES2_S2_@plt
  93      E7800000 
GAS LISTING /tmp/ccD8xznD.s 			page 3


  94              	.LVL7:
  24:src/ABIWrappers.cpp ****                       reinterpret_cast<void (*)(void *)>(body),
  25:src/ABIWrappers.cpp ****                        reinterpret_cast<void *>(arg),
  26:src/ABIWrappers.cpp ****                        reinterpret_cast<void *>(stackSpace));
  27:src/ABIWrappers.cpp **** 
  28:src/ABIWrappers.cpp **** }
  95              		.loc 1 28 1
  96 0068 83308100 		ld	ra,8(sp)
  97              		.cfi_restore 1
  98 006c 03340100 		ld	s0,0(sp)
  99              		.cfi_restore 8
 100              		.cfi_def_cfa 2, 16
 101 0070 13010101 		addi	sp,sp,16
 102              		.cfi_def_cfa_offset 0
 103 0074 67800000 		jr	ra
 104              		.cfi_endproc
 105              	.LFE31:
 107              		.align	2
 108              		.globl	_ZN3ABI17threadExitWrapperEv
 110              	_ZN3ABI17threadExitWrapperEv:
 111              	.LFB32:
  29:src/ABIWrappers.cpp **** 
  30:src/ABIWrappers.cpp **** void ABI::threadExitWrapper() {
 112              		.loc 1 30 31 is_stmt 1
 113              		.cfi_startproc
 114 0078 130101FF 		addi	sp,sp,-16
 115              		.cfi_def_cfa_offset 16
 116 007c 23341100 		sd	ra,8(sp)
 117 0080 23308100 		sd	s0,0(sp)
 118              		.cfi_offset 1, -8
 119              		.cfi_offset 8, -16
 120 0084 13040101 		addi	s0,sp,16
 121              		.cfi_def_cfa 8, 0
  31:src/ABIWrappers.cpp ****     TCB::thread_exit();
 122              		.loc 1 31 5
 123              		.loc 1 31 21 is_stmt 0
 124 0088 97000000 		call	_ZN3TCB11thread_exitEv@plt
 124      E7800000 
 125              	.LVL8:
  32:src/ABIWrappers.cpp **** }
 126              		.loc 1 32 1
 127 0090 83308100 		ld	ra,8(sp)
 128              		.cfi_restore 1
 129 0094 03340100 		ld	s0,0(sp)
 130              		.cfi_restore 8
 131              		.cfi_def_cfa 2, 16
 132 0098 13010101 		addi	sp,sp,16
 133              		.cfi_def_cfa_offset 0
 134 009c 67800000 		jr	ra
 135              		.cfi_endproc
 136              	.LFE32:
 138              		.align	2
 139              		.globl	_ZN3ABI21threadDispatchWrapperEv
 141              	_ZN3ABI21threadDispatchWrapperEv:
 142              	.LFB33:
  33:src/ABIWrappers.cpp **** 
  34:src/ABIWrappers.cpp **** void ABI::threadDispatchWrapper() {
GAS LISTING /tmp/ccD8xznD.s 			page 4


 143              		.loc 1 34 35 is_stmt 1
 144              		.cfi_startproc
 145 00a0 130101FF 		addi	sp,sp,-16
 146              		.cfi_def_cfa_offset 16
 147 00a4 23348100 		sd	s0,8(sp)
 148              		.cfi_offset 8, -8
 149 00a8 13040101 		addi	s0,sp,16
 150              		.cfi_def_cfa 8, 0
  35:src/ABIWrappers.cpp ****     //bespotrebno al je ljepo
  36:src/ABIWrappers.cpp **** }
 151              		.loc 1 36 1 is_stmt 0
 152 00ac 03348100 		ld	s0,8(sp)
 153              		.cfi_restore 8
 154              		.cfi_def_cfa 2, 16
 155 00b0 13010101 		addi	sp,sp,16
 156              		.cfi_def_cfa_offset 0
 157 00b4 67800000 		jr	ra
 158              		.cfi_endproc
 159              	.LFE33:
 161              		.align	2
 162              		.globl	_ZN3ABI14semOpenWrapperEmm
 164              	_ZN3ABI14semOpenWrapperEmm:
 165              	.LFB34:
  37:src/ABIWrappers.cpp **** 
  38:src/ABIWrappers.cpp **** void ABI::semOpenWrapper(uint64 handle, uint64 init){
 166              		.loc 1 38 53 is_stmt 1
 167              		.cfi_startproc
 168              	.LVL9:
 169 00b8 130101FE 		addi	sp,sp,-32
 170              		.cfi_def_cfa_offset 32
 171 00bc 233C1100 		sd	ra,24(sp)
 172 00c0 23388100 		sd	s0,16(sp)
 173 00c4 23349100 		sd	s1,8(sp)
 174              		.cfi_offset 1, -8
 175              		.cfi_offset 8, -16
 176              		.cfi_offset 9, -24
 177 00c8 13040102 		addi	s0,sp,32
 178              		.cfi_def_cfa 8, 0
 179 00cc 93040500 		mv	s1,a0
  39:src/ABIWrappers.cpp ****     Sem** sem = (Sem**) handle;
 180              		.loc 1 39 5
 181              	.LVL10:
  40:src/ABIWrappers.cpp ****     *sem = Sem::createSem(init);
 182              		.loc 1 40 5
 183              		.loc 1 40 26 is_stmt 0
 184 00d0 13850500 		mv	a0,a1
 185              	.LVL11:
 186 00d4 97000000 		call	_ZN3Sem9createSemEm@plt
 186      E7800000 
 187              	.LVL12:
 188              		.loc 1 40 10
 189 00dc 23B0A400 		sd	a0,0(s1)
  41:src/ABIWrappers.cpp **** }
 190              		.loc 1 41 1
 191 00e0 83308101 		ld	ra,24(sp)
 192              		.cfi_restore 1
 193 00e4 03340101 		ld	s0,16(sp)
GAS LISTING /tmp/ccD8xznD.s 			page 5


 194              		.cfi_restore 8
 195              		.cfi_def_cfa 2, 32
 196 00e8 83348100 		ld	s1,8(sp)
 197              		.cfi_restore 9
 198              	.LVL13:
 199 00ec 13010102 		addi	sp,sp,32
 200              		.cfi_def_cfa_offset 0
 201 00f0 67800000 		jr	ra
 202              		.cfi_endproc
 203              	.LFE34:
 205              		.align	2
 206              		.globl	_ZN3ABI15semCloseWrapperEm
 208              	_ZN3ABI15semCloseWrapperEm:
 209              	.LFB35:
  42:src/ABIWrappers.cpp **** 
  43:src/ABIWrappers.cpp **** void ABI::semCloseWrapper(uint64 handle){
 210              		.loc 1 43 41 is_stmt 1
 211              		.cfi_startproc
 212              	.LVL14:
 213 00f4 130101FF 		addi	sp,sp,-16
 214              		.cfi_def_cfa_offset 16
 215 00f8 23341100 		sd	ra,8(sp)
 216 00fc 23308100 		sd	s0,0(sp)
 217              		.cfi_offset 1, -8
 218              		.cfi_offset 8, -16
 219 0100 13040101 		addi	s0,sp,16
 220              		.cfi_def_cfa 8, 0
  44:src/ABIWrappers.cpp ****     Sem* sem = (Sem*)handle;
 221              		.loc 1 44 5
 222              	.LVL15:
  45:src/ABIWrappers.cpp ****     Sem::closeSem(sem);
 223              		.loc 1 45 5
 224              		.loc 1 45 18 is_stmt 0
 225 0104 97000000 		call	_ZN3Sem8closeSemEPS_@plt
 225      E7800000 
 226              	.LVL16:
  46:src/ABIWrappers.cpp **** }
 227              		.loc 1 46 1
 228 010c 83308100 		ld	ra,8(sp)
 229              		.cfi_restore 1
 230 0110 03340100 		ld	s0,0(sp)
 231              		.cfi_restore 8
 232              		.cfi_def_cfa 2, 16
 233 0114 13010101 		addi	sp,sp,16
 234              		.cfi_def_cfa_offset 0
 235 0118 67800000 		jr	ra
 236              		.cfi_endproc
 237              	.LFE35:
 239              		.align	2
 240              		.globl	_ZN3ABI14semWaitWrapperEm
 242              	_ZN3ABI14semWaitWrapperEm:
 243              	.LFB36:
  47:src/ABIWrappers.cpp **** 
  48:src/ABIWrappers.cpp **** void ABI::semWaitWrapper(uint64 handleId){
 244              		.loc 1 48 42 is_stmt 1
 245              		.cfi_startproc
 246              	.LVL17:
GAS LISTING /tmp/ccD8xznD.s 			page 6


 247 011c 130101FF 		addi	sp,sp,-16
 248              		.cfi_def_cfa_offset 16
 249 0120 23341100 		sd	ra,8(sp)
 250 0124 23308100 		sd	s0,0(sp)
 251              		.cfi_offset 1, -8
 252              		.cfi_offset 8, -16
 253 0128 13040101 		addi	s0,sp,16
 254              		.cfi_def_cfa 8, 0
  49:src/ABIWrappers.cpp ****     Sem* sem = (Sem*) handleId;
 255              		.loc 1 49 5
 256              	.LVL18:
  50:src/ABIWrappers.cpp ****     sem->wait();
 257              		.loc 1 50 5
 258              		.loc 1 50 14 is_stmt 0
 259 012c 97000000 		call	_ZN3Sem4waitEv@plt
 259      E7800000 
 260              	.LVL19:
  51:src/ABIWrappers.cpp **** }
 261              		.loc 1 51 1
 262 0134 83308100 		ld	ra,8(sp)
 263              		.cfi_restore 1
 264 0138 03340100 		ld	s0,0(sp)
 265              		.cfi_restore 8
 266              		.cfi_def_cfa 2, 16
 267 013c 13010101 		addi	sp,sp,16
 268              		.cfi_def_cfa_offset 0
 269 0140 67800000 		jr	ra
 270              		.cfi_endproc
 271              	.LFE36:
 273              		.align	2
 274              		.globl	_ZN3ABI16semSignalWrapperEm
 276              	_ZN3ABI16semSignalWrapperEm:
 277              	.LFB37:
  52:src/ABIWrappers.cpp **** 
  53:src/ABIWrappers.cpp **** void ABI::semSignalWrapper(uint64 handleId){
 278              		.loc 1 53 44 is_stmt 1
 279              		.cfi_startproc
 280              	.LVL20:
 281 0144 130101FF 		addi	sp,sp,-16
 282              		.cfi_def_cfa_offset 16
 283 0148 23341100 		sd	ra,8(sp)
 284 014c 23308100 		sd	s0,0(sp)
 285              		.cfi_offset 1, -8
 286              		.cfi_offset 8, -16
 287 0150 13040101 		addi	s0,sp,16
 288              		.cfi_def_cfa 8, 0
  54:src/ABIWrappers.cpp ****     Sem* sem = (Sem*) handleId;
 289              		.loc 1 54 5
 290              	.LVL21:
  55:src/ABIWrappers.cpp ****     sem->signal();
 291              		.loc 1 55 5
 292              		.loc 1 55 16 is_stmt 0
 293 0154 97000000 		call	_ZN3Sem6signalEv@plt
 293      E7800000 
 294              	.LVL22:
  56:src/ABIWrappers.cpp **** 
  57:src/ABIWrappers.cpp **** }
GAS LISTING /tmp/ccD8xznD.s 			page 7


 295              		.loc 1 57 1
 296 015c 83308100 		ld	ra,8(sp)
 297              		.cfi_restore 1
 298 0160 03340100 		ld	s0,0(sp)
 299              		.cfi_restore 8
 300              		.cfi_def_cfa 2, 16
 301 0164 13010101 		addi	sp,sp,16
 302              		.cfi_def_cfa_offset 0
 303 0168 67800000 		jr	ra
 304              		.cfi_endproc
 305              	.LFE37:
 307              		.align	2
 308              		.globl	_ZN3ABI17semTryWaitWrapperEm
 310              	_ZN3ABI17semTryWaitWrapperEm:
 311              	.LFB38:
  58:src/ABIWrappers.cpp **** 
  59:src/ABIWrappers.cpp **** void ABI::semTryWaitWrapper(uint64 handleId){
 312              		.loc 1 59 45 is_stmt 1
 313              		.cfi_startproc
 314              	.LVL23:
 315 016c 130101FF 		addi	sp,sp,-16
 316              		.cfi_def_cfa_offset 16
 317 0170 23341100 		sd	ra,8(sp)
 318 0174 23308100 		sd	s0,0(sp)
 319              		.cfi_offset 1, -8
 320              		.cfi_offset 8, -16
 321 0178 13040101 		addi	s0,sp,16
 322              		.cfi_def_cfa 8, 0
  60:src/ABIWrappers.cpp ****     Sem* sem = (Sem*) handleId;
 323              		.loc 1 60 5
 324              	.LVL24:
  61:src/ABIWrappers.cpp ****     sem->tryWait();
 325              		.loc 1 61 5
 326              		.loc 1 61 17 is_stmt 0
 327 017c 97000000 		call	_ZN3Sem7tryWaitEv@plt
 327      E7800000 
 328              	.LVL25:
  62:src/ABIWrappers.cpp **** }
 329              		.loc 1 62 1
 330 0184 83308100 		ld	ra,8(sp)
 331              		.cfi_restore 1
 332 0188 03340100 		ld	s0,0(sp)
 333              		.cfi_restore 8
 334              		.cfi_def_cfa 2, 16
 335 018c 13010101 		addi	sp,sp,16
 336              		.cfi_def_cfa_offset 0
 337 0190 67800000 		jr	ra
 338              		.cfi_endproc
 339              	.LFE38:
 341              		.align	2
 342              		.globl	_ZN3ABI11getcWrapperEv
 344              	_ZN3ABI11getcWrapperEv:
 345              	.LFB39:
  63:src/ABIWrappers.cpp **** 
  64:src/ABIWrappers.cpp **** void ABI::getcWrapper(){
 346              		.loc 1 64 24 is_stmt 1
 347              		.cfi_startproc
GAS LISTING /tmp/ccD8xznD.s 			page 8


 348 0194 130101FF 		addi	sp,sp,-16
 349              		.cfi_def_cfa_offset 16
 350 0198 23341100 		sd	ra,8(sp)
 351 019c 23308100 		sd	s0,0(sp)
 352              		.cfi_offset 1, -8
 353              		.cfi_offset 8, -16
 354 01a0 13040101 		addi	s0,sp,16
 355              		.cfi_def_cfa 8, 0
  65:src/ABIWrappers.cpp ****     __getc();
 356              		.loc 1 65 5
 357              		.loc 1 65 11 is_stmt 0
 358 01a4 97000000 		call	__getc@plt
 358      E7800000 
 359              	.LVL26:
  66:src/ABIWrappers.cpp **** }
 360              		.loc 1 66 1
 361 01ac 83308100 		ld	ra,8(sp)
 362              		.cfi_restore 1
 363 01b0 03340100 		ld	s0,0(sp)
 364              		.cfi_restore 8
 365              		.cfi_def_cfa 2, 16
 366 01b4 13010101 		addi	sp,sp,16
 367              		.cfi_def_cfa_offset 0
 368 01b8 67800000 		jr	ra
 369              		.cfi_endproc
 370              	.LFE39:
 372              		.align	2
 373              		.globl	_ZN3ABI11putcWrapperEm
 375              	_ZN3ABI11putcWrapperEm:
 376              	.LFB40:
  67:src/ABIWrappers.cpp **** 
  68:src/ABIWrappers.cpp **** void ABI::putcWrapper(uint64 c){
 377              		.loc 1 68 32 is_stmt 1
 378              		.cfi_startproc
 379              	.LVL27:
 380 01bc 130101FF 		addi	sp,sp,-16
 381              		.cfi_def_cfa_offset 16
 382 01c0 23341100 		sd	ra,8(sp)
 383 01c4 23308100 		sd	s0,0(sp)
 384              		.cfi_offset 1, -8
 385              		.cfi_offset 8, -16
 386 01c8 13040101 		addi	s0,sp,16
 387              		.cfi_def_cfa 8, 0
  69:src/ABIWrappers.cpp ****     char cc = (char) c;
 388              		.loc 1 69 5
 389              	.LVL28:
  70:src/ABIWrappers.cpp ****     __putc(cc);
 390              		.loc 1 70 5
 391              		.loc 1 70 11 is_stmt 0
 392 01cc 1375F50F 		andi	a0,a0,0xff
 393              	.LVL29:
 394 01d0 97000000 		call	__putc@plt
 394      E7800000 
 395              	.LVL30:
  71:src/ABIWrappers.cpp **** 
  72:src/ABIWrappers.cpp **** }
 396              		.loc 1 72 1
GAS LISTING /tmp/ccD8xznD.s 			page 9


 397 01d8 83308100 		ld	ra,8(sp)
 398              		.cfi_restore 1
 399 01dc 03340100 		ld	s0,0(sp)
 400              		.cfi_restore 8
 401              		.cfi_def_cfa 2, 16
 402 01e0 13010101 		addi	sp,sp,16
 403              		.cfi_def_cfa_offset 0
 404 01e4 67800000 		jr	ra
 405              		.cfi_endproc
 406              	.LFE40:
 408              	.Letext0:
 409              		.file 2 "src/../h/../lib/hw.h"
 410              		.file 3 "src/../h/../h/MemoryAllocator.hpp"
 411              		.file 4 "src/../h/tcb.hpp"
 412              		.file 5 "src/../h/Sem.hpp"
 413              		.file 6 "src/../h/syscall_c.hpp"
 414              		.file 7 "src/../lib/console.h"
 415              		.file 8 "src/../h/ABIWrappers.hpp"
GAS LISTING /tmp/ccD8xznD.s 			page 10

