GAS LISTING /tmp/ccmpWbSc.s 			page 1


   1              		.file	"scheduler.cpp"
   2              		.option pic
   3              		.option norelax
   4              		.text
   5              	.Ltext0:
   6              		.align	2
   8              	_Z41__static_initialization_and_destruction_0ii:
   9              	.LFB20:
  10              		.file 1 "src/scheduler.cpp"
   1:src/scheduler.cpp **** //
   2:src/scheduler.cpp **** // Created by marko on 20.4.22..
   3:src/scheduler.cpp **** //
   4:src/scheduler.cpp **** 
   5:src/scheduler.cpp **** #include "../h/scheduler.hpp"
   6:src/scheduler.cpp **** 
   7:src/scheduler.cpp **** List<TCB> Scheduler::readyThreadQueue;
   8:src/scheduler.cpp **** 
   9:src/scheduler.cpp **** TCB *Scheduler::get()
  10:src/scheduler.cpp **** {
  11:src/scheduler.cpp ****     return readyThreadQueue.removeFirst();
  12:src/scheduler.cpp **** }
  13:src/scheduler.cpp **** 
  14:src/scheduler.cpp **** void Scheduler::put(TCB *ccb)
  15:src/scheduler.cpp **** {
  16:src/scheduler.cpp ****     readyThreadQueue.addLast(ccb);
  17:src/scheduler.cpp **** }
  18:src/scheduler.cpp **** TCB * Scheduler::head(){
  19:src/scheduler.cpp ****     return readyThreadQueue.peekFirst();
  20:src/scheduler.cpp **** }...
  11              		.loc 1 20 1
  12              		.cfi_startproc
  13              	.LVL0:
  14 0000 130101FF 		addi	sp,sp,-16
  15              		.cfi_def_cfa_offset 16
  16 0004 23348100 		sd	s0,8(sp)
  17              		.cfi_offset 8, -8
  18 0008 13040101 		addi	s0,sp,16
  19              		.cfi_def_cfa 8, 0
  20              		.loc 1 20 1 is_stmt 0
  21 000c 93071000 		li	a5,1
  22 0010 6308F500 		beq	a0,a5,.L4
  23              	.L1:
  24 0014 03348100 		ld	s0,8(sp)
  25              		.cfi_remember_state
  26              		.cfi_restore 8
  27              		.cfi_def_cfa 2, 16
  28 0018 13010101 		addi	sp,sp,16
  29              		.cfi_def_cfa_offset 0
  30 001c 67800000 		jr	ra
  31              	.L4:
  32              		.cfi_restore_state
  33              		.loc 1 20 1 discriminator 1
  34 0020 B7070100 		li	a5,65536
  35 0024 9387F7FF 		addi	a5,a5,-1
  36 0028 E396F5FE 		bne	a1,a5,.L1
  37              	.LVL1:
  38              	.LBB17:
GAS LISTING /tmp/ccmpWbSc.s 			page 2


  39              	.LBB18:
  40              	.LBB19:
  41              		.file 2 "src/../h/list.hpp"
   1:src/../h/list.hpp **** //
   2:src/../h/list.hpp **** // Created by marko on 20.4.22..
   3:src/../h/list.hpp **** //
   4:src/../h/list.hpp **** 
   5:src/../h/list.hpp **** #ifndef OS1_VEZBE07_RISCV_CONTEXT_SWITCH_2_INTERRUPT_LIST_HPP
   6:src/../h/list.hpp **** #define OS1_VEZBE07_RISCV_CONTEXT_SWITCH_2_INTERRUPT_LIST_HPP
   7:src/../h/list.hpp **** 
   8:src/../h/list.hpp **** template<typename T>
   9:src/../h/list.hpp **** class List
  10:src/../h/list.hpp **** {
  11:src/../h/list.hpp **** private:
  12:src/../h/list.hpp ****     struct Elem
  13:src/../h/list.hpp ****     {
  14:src/../h/list.hpp ****         T *data;
  15:src/../h/list.hpp ****         Elem *next;
  16:src/../h/list.hpp **** 
  17:src/../h/list.hpp ****         Elem(T *data, Elem *next) : data(data), next(next) {}
  18:src/../h/list.hpp ****     };
  19:src/../h/list.hpp **** 
  20:src/../h/list.hpp ****     Elem *head, *tail;
  21:src/../h/list.hpp **** 
  22:src/../h/list.hpp **** public:
  23:src/../h/list.hpp ****     List() : head(0), tail(0) {}
  42              		.loc 2 23 29
  43 002c 97070000 		lla	a5,.LANCHOR0
  43      93870700 
  44 0034 23B00700 		sd	zero,0(a5)
  45 0038 23B40700 		sd	zero,8(a5)
  46              	.LVL2:
  47              	.LBE19:
  48              	.LBE18:
  49              	.LBE17:
  50              		.loc 1 20 1
  51 003c 6FF09FFD 		j	.L1
  52              		.cfi_endproc
  53              	.LFE20:
  55              		.align	2
  56              		.globl	_ZN9Scheduler3getEv
  58              	_ZN9Scheduler3getEv:
  59              	.LFB8:
  10:src/scheduler.cpp **** {
  60              		.loc 1 10 1 is_stmt 1
  61              		.cfi_startproc
  62 0040 130101FE 		addi	sp,sp,-32
  63              		.cfi_def_cfa_offset 32
  64 0044 233C1100 		sd	ra,24(sp)
  65 0048 23388100 		sd	s0,16(sp)
  66 004c 23349100 		sd	s1,8(sp)
  67              		.cfi_offset 1, -8
  68              		.cfi_offset 8, -16
  69              		.cfi_offset 9, -24
  70 0050 13040102 		addi	s0,sp,32
  71              		.cfi_def_cfa 8, 0
  11:src/scheduler.cpp ****     return readyThreadQueue.removeFirst();
GAS LISTING /tmp/ccmpWbSc.s 			page 3


  72              		.loc 1 11 5
  73              	.LVL3:
  74              	.LBB20:
  75              	.LBB21:
  24:src/../h/list.hpp **** 
  25:src/../h/list.hpp ****     List(const List<T> &) = delete;
  26:src/../h/list.hpp **** 
  27:src/../h/list.hpp ****     List<T> &operator=(const List<T> &) = delete;
  28:src/../h/list.hpp **** 
  29:src/../h/list.hpp ****     void addFirst(T *data)
  30:src/../h/list.hpp ****     {
  31:src/../h/list.hpp ****         Elem *elem = new Elem(data, head);
  32:src/../h/list.hpp ****         head = elem;
  33:src/../h/list.hpp ****         if (!tail) { tail = head; }
  34:src/../h/list.hpp ****     }
  35:src/../h/list.hpp **** 
  36:src/../h/list.hpp ****     void addLast(T *data)
  37:src/../h/list.hpp ****     {
  38:src/../h/list.hpp ****         Elem *elem = new Elem(data, 0);
  39:src/../h/list.hpp ****         if (tail)
  40:src/../h/list.hpp ****         {
  41:src/../h/list.hpp ****             tail->next = elem;
  42:src/../h/list.hpp ****             tail = elem;
  43:src/../h/list.hpp ****         } else
  44:src/../h/list.hpp ****         {
  45:src/../h/list.hpp ****             head = tail = elem;
  46:src/../h/list.hpp ****         }
  47:src/../h/list.hpp ****     }
  48:src/../h/list.hpp **** 
  49:src/../h/list.hpp ****     T *removeFirst()
  50:src/../h/list.hpp ****     {
  51:src/../h/list.hpp ****         if (!head) { return 0; }
  76              		.loc 2 51 14 is_stmt 0
  77 0054 17050000 		ld	a0,.LANCHOR0
  77      03350500 
  78              		.loc 2 51 9
  79 005c 63020504 		beqz	a0,.L8
  80              	.LVL4:
  52:src/../h/list.hpp **** 
  53:src/../h/list.hpp ****         Elem *elem = head;
  54:src/../h/list.hpp ****         head = head->next;
  81              		.loc 2 54 22
  82 0060 83378500 		ld	a5,8(a0)
  83              		.loc 2 54 9
  84 0064 17070000 		sd	a5,.LANCHOR0,a4
  84      2330F700 
  55:src/../h/list.hpp ****         if (!head) { tail = 0; }
  85              		.loc 2 55 9
  86 006c 63840702 		beqz	a5,.L10
  87              	.L7:
  56:src/../h/list.hpp **** 
  57:src/../h/list.hpp ****         T *ret = elem->data;
  88              		.loc 2 57 12
  89 0070 83340500 		ld	s1,0(a0)
  90              	.LVL5:
  58:src/../h/list.hpp ****         delete elem;
  91              		.loc 2 58 9
GAS LISTING /tmp/ccmpWbSc.s 			page 4


  92 0074 97000000 		call	_ZdlPv@plt
  92      E7800000 
  93              	.LVL6:
  94              	.L5:
  95              	.LBE21:
  96              	.LBE20:
  12:src/scheduler.cpp **** }
  97              		.loc 1 12 1
  98 007c 13850400 		mv	a0,s1
  99 0080 83308101 		ld	ra,24(sp)
 100              		.cfi_remember_state
 101              		.cfi_restore 1
 102 0084 03340101 		ld	s0,16(sp)
 103              		.cfi_restore 8
 104              		.cfi_def_cfa 2, 32
 105 0088 83348100 		ld	s1,8(sp)
 106              		.cfi_restore 9
 107 008c 13010102 		addi	sp,sp,32
 108              		.cfi_def_cfa_offset 0
 109 0090 67800000 		jr	ra
 110              	.LVL7:
 111              	.L10:
 112              		.cfi_restore_state
 113              	.LBB23:
 114              	.LBB22:
  55:src/../h/list.hpp **** 
 115              		.loc 2 55 22
 116 0094 97070000 		sd	zero,.LANCHOR0+8,a5
 116      23B00700 
 117 009c 6FF05FFD 		j	.L7
 118              	.LVL8:
 119              	.L8:
  51:src/../h/list.hpp **** 
 120              		.loc 2 51 29
 121 00a0 93040500 		mv	s1,a0
 122              	.LVL9:
 123              	.LBE22:
 124              	.LBE23:
  11:src/scheduler.cpp ****     return readyThreadQueue.removeFirst();
 125              		.loc 1 11 41
 126 00a4 6FF09FFD 		j	.L5
 127              		.cfi_endproc
 128              	.LFE8:
 130              		.align	2
 131              		.globl	_ZN9Scheduler3putEP3TCB
 133              	_ZN9Scheduler3putEP3TCB:
 134              	.LFB9:
  15:src/scheduler.cpp **** {
 135              		.loc 1 15 1 is_stmt 1
 136              		.cfi_startproc
 137              	.LVL10:
 138 00a8 130101FE 		addi	sp,sp,-32
 139              		.cfi_def_cfa_offset 32
 140 00ac 233C1100 		sd	ra,24(sp)
 141 00b0 23388100 		sd	s0,16(sp)
 142 00b4 23349100 		sd	s1,8(sp)
 143              		.cfi_offset 1, -8
GAS LISTING /tmp/ccmpWbSc.s 			page 5


 144              		.cfi_offset 8, -16
 145              		.cfi_offset 9, -24
 146 00b8 13040102 		addi	s0,sp,32
 147              		.cfi_def_cfa 8, 0
 148 00bc 93040500 		mv	s1,a0
  16:src/scheduler.cpp ****     readyThreadQueue.addLast(ccb);
 149              		.loc 1 16 5
 150              	.LVL11:
 151              	.LBB24:
 152              	.LBB25:
  38:src/../h/list.hpp ****         if (tail)
 153              		.loc 2 38 22 is_stmt 0
 154 00c0 13050001 		li	a0,16
 155              	.LVL12:
 156 00c4 97000000 		call	_Znwm@plt
 156      E7800000 
 157              	.LVL13:
 158              	.LBB26:
 159              	.LBB27:
  17:src/../h/list.hpp ****     };
 160              		.loc 2 17 58
 161 00cc 23309500 		sd	s1,0(a0)
 162 00d0 23340500 		sd	zero,8(a0)
 163              	.LVL14:
 164              	.LBE27:
 165              	.LBE26:
  39:src/../h/list.hpp ****         {
 166              		.loc 2 39 13
 167 00d4 97070000 		ld	a5,.LANCHOR0+8
 167      83B70700 
  39:src/../h/list.hpp ****         {
 168              		.loc 2 39 9
 169 00dc 63820702 		beqz	a5,.L12
  41:src/../h/list.hpp ****             tail = elem;
 170              		.loc 2 41 13
 171 00e0 23B4A700 		sd	a0,8(a5)
  42:src/../h/list.hpp ****         } else
 172              		.loc 2 42 13
 173 00e4 97070000 		sd	a0,.LANCHOR0+8,a5
 173      23B0A700 
 174              	.LVL15:
 175              	.L11:
 176              	.LBE25:
 177              	.LBE24:
  17:src/scheduler.cpp **** }
 178              		.loc 1 17 1
 179 00ec 83308101 		ld	ra,24(sp)
 180              		.cfi_remember_state
 181              		.cfi_restore 1
 182 00f0 03340101 		ld	s0,16(sp)
 183              		.cfi_restore 8
 184              		.cfi_def_cfa 2, 32
 185 00f4 83348100 		ld	s1,8(sp)
 186              		.cfi_restore 9
 187              	.LVL16:
 188 00f8 13010102 		addi	sp,sp,32
 189              		.cfi_def_cfa_offset 0
GAS LISTING /tmp/ccmpWbSc.s 			page 6


 190 00fc 67800000 		jr	ra
 191              	.LVL17:
 192              	.L12:
 193              		.cfi_restore_state
 194              	.LBB29:
 195              	.LBB28:
  45:src/../h/list.hpp ****         }
 196              		.loc 2 45 13
 197 0100 97070000 		lla	a5,.LANCHOR0
 197      93870700 
 198 0108 23B4A700 		sd	a0,8(a5)
 199 010c 23B0A700 		sd	a0,0(a5)
 200              	.LVL18:
 201              	.LBE28:
 202              	.LBE29:
  17:src/scheduler.cpp **** }
 203              		.loc 1 17 1
 204 0110 6FF0DFFD 		j	.L11
 205              		.cfi_endproc
 206              	.LFE9:
 208              		.align	2
 209              		.globl	_ZN9Scheduler4headEv
 211              	_ZN9Scheduler4headEv:
 212              	.LFB10:
  18:src/scheduler.cpp **** TCB * Scheduler::head(){
 213              		.loc 1 18 24 is_stmt 1
 214              		.cfi_startproc
 215 0114 130101FF 		addi	sp,sp,-16
 216              		.cfi_def_cfa_offset 16
 217 0118 23348100 		sd	s0,8(sp)
 218              		.cfi_offset 8, -8
 219 011c 13040101 		addi	s0,sp,16
 220              		.cfi_def_cfa 8, 0
  19:src/scheduler.cpp ****     return readyThreadQueue.peekFirst();
 221              		.loc 1 19 5
 222              	.LVL19:
 223              	.LBB30:
 224              	.LBB31:
  59:src/../h/list.hpp ****         return ret;
  60:src/../h/list.hpp ****     }
  61:src/../h/list.hpp **** 
  62:src/../h/list.hpp ****     T *peekFirst()
  63:src/../h/list.hpp ****     {
  64:src/../h/list.hpp ****         if (!head) { return 0; }
 225              		.loc 2 64 14 is_stmt 0
 226 0120 17050000 		ld	a0,.LANCHOR0
 226      03350500 
 227              		.loc 2 64 9
 228 0128 63040500 		beqz	a0,.L15
  65:src/../h/list.hpp ****         return head->data;
 229              		.loc 2 65 22
 230 012c 03350500 		ld	a0,0(a0)
 231              	.LVL20:
 232              	.L15:
 233              	.LBE31:
 234              	.LBE30:
 235              		.loc 1 20 1
GAS LISTING /tmp/ccmpWbSc.s 			page 7


 236 0130 03348100 		ld	s0,8(sp)
 237              		.cfi_restore 8
 238              		.cfi_def_cfa 2, 16
 239 0134 13010101 		addi	sp,sp,16
 240              		.cfi_def_cfa_offset 0
 241 0138 67800000 		jr	ra
 242              		.cfi_endproc
 243              	.LFE10:
 245              		.align	2
 247              	_GLOBAL__sub_I__ZN9Scheduler16readyThreadQueueE:
 248              	.LFB21:
 249              		.loc 1 20 1 is_stmt 1
 250              		.cfi_startproc
 251 013c 130101FF 		addi	sp,sp,-16
 252              		.cfi_def_cfa_offset 16
 253 0140 23341100 		sd	ra,8(sp)
 254 0144 23308100 		sd	s0,0(sp)
 255              		.cfi_offset 1, -8
 256              		.cfi_offset 8, -16
 257 0148 13040101 		addi	s0,sp,16
 258              		.cfi_def_cfa 8, 0
 259              		.loc 1 20 1 is_stmt 0
 260 014c B7050100 		li	a1,65536
 261 0150 9385F5FF 		addi	a1,a1,-1
 262 0154 13051000 		li	a0,1
 263 0158 97000000 		call	_Z41__static_initialization_and_destruction_0ii
 263      E7800000 
 264              	.LVL21:
 265 0160 83308100 		ld	ra,8(sp)
 266              		.cfi_restore 1
 267 0164 03340100 		ld	s0,0(sp)
 268              		.cfi_restore 8
 269              		.cfi_def_cfa 2, 16
 270 0168 13010101 		addi	sp,sp,16
 271              		.cfi_def_cfa_offset 0
 272 016c 67800000 		jr	ra
 273              		.cfi_endproc
 274              	.LFE21:
 276              		.section	.init_array,"aw"
 277              		.align	3
 278 0000 00000000 		.dword	_GLOBAL__sub_I__ZN9Scheduler16readyThreadQueueE
 278      00000000 
 279              		.globl	_ZN9Scheduler16readyThreadQueueE
 280              		.bss
 281              		.align	3
 282              		.set	.LANCHOR0,. + 0
 285              	_ZN9Scheduler16readyThreadQueueE:
 286 0000 00000000 		.zero	16
 286      00000000 
 286      00000000 
 286      00000000 
 287              		.text
 288              	.Letext0:
 289              		.file 3 "src/../h/scheduler.hpp"
GAS LISTING /tmp/ccmpWbSc.s 			page 8

