GAS LISTING /tmp/ccwMkC5w.s 			page 1


   1              		.file	"Sem.cpp"
   2              		.option pic
   3              		.option norelax
   4              		.text
   5              	.Ltext0:
   6              		.align	2
   7              		.globl	_ZN3Sem5blockEv
   9              	_ZN3Sem5blockEv:
  10              	.LFB29:
  11              		.file 1 "src/Sem.cpp"
   1:src/Sem.cpp   **** //
   2:src/Sem.cpp   **** // Created by os on 6/26/24.
   3:src/Sem.cpp   **** //
   4:src/Sem.cpp   **** #include "../h/Sem.hpp"
   5:src/Sem.cpp   **** #include "../h/MemoryAllocator.hpp"
   6:src/Sem.cpp   **** 
   7:src/Sem.cpp   **** void Sem::block() {
  12              		.loc 1 7 19
  13              		.cfi_startproc
  14              	.LVL0:
  15 0000 130101FF 		addi	sp,sp,-16
  16              		.cfi_def_cfa_offset 16
  17 0004 23341100 		sd	ra,8(sp)
  18 0008 23308100 		sd	s0,0(sp)
  19              		.cfi_offset 1, -8
  20              		.cfi_offset 8, -16
  21 000c 13040101 		addi	s0,sp,16
  22              		.cfi_def_cfa 8, 0
   8:src/Sem.cpp   ****     if (head != nullptr){
  23              		.loc 1 8 5
  24              		.loc 1 8 9 is_stmt 0
  25 0010 83378500 		ld	a5,8(a0)
  26              		.loc 1 8 5
  27 0014 63840704 		beqz	a5,.L2
   9:src/Sem.cpp   ****         tail->nextSem = TCB::running;
  28              		.loc 1 9 9 is_stmt 1
  29 0018 03370501 		ld	a4,16(a0)
  30              		.loc 1 9 23 is_stmt 0
  31 001c 97070000 		la	a5,_ZN3TCB7runningE
  31      83B70700 
  32 0024 83B70700 		ld	a5,0(a5)
  33 0028 233CF702 		sd	a5,56(a4)
  10:src/Sem.cpp   ****         tail = TCB::running;
  34              		.loc 1 10 9 is_stmt 1
  35              		.loc 1 10 14 is_stmt 0
  36 002c 2338F500 		sd	a5,16(a0)
  37              	.L3:
  11:src/Sem.cpp   ****     }
  12:src/Sem.cpp   ****     else{
  13:src/Sem.cpp   ****         head = TCB::running;
  14:src/Sem.cpp   ****         tail = TCB::running;
  15:src/Sem.cpp   ****     }
  16:src/Sem.cpp   ****     TCB::running->setBlocked(true);
  38              		.loc 1 16 5 is_stmt 1
  39              		.loc 1 16 29 is_stmt 0
  40 0030 97070000 		la	a5,_ZN3TCB7runningE
  40      83B70700 
GAS LISTING /tmp/ccwMkC5w.s 			page 2


  41 0038 83B70700 		ld	a5,0(a5)
  42              	.LVL1:
  43              	.LBB17:
  44              	.LBB18:
  45              		.file 2 "src/../h/tcb.hpp"
   1:src/../h/tcb.hpp **** //
   2:src/../h/tcb.hpp **** // Created by marko on 20.4.22..
   3:src/../h/tcb.hpp **** //
   4:src/../h/tcb.hpp **** 
   5:src/../h/tcb.hpp **** #ifndef OS1_VEZBE07_RISCV_CONTEXT_SWITCH_2_INTERRUPT_TCB_HPP
   6:src/../h/tcb.hpp **** #define OS1_VEZBE07_RISCV_CONTEXT_SWITCH_2_INTERRUPT_TCB_HPP
   7:src/../h/tcb.hpp **** 
   8:src/../h/tcb.hpp **** #include "../lib/hw.h"
   9:src/../h/tcb.hpp **** #include "scheduler.hpp"
  10:src/../h/tcb.hpp **** #include "syscall_c.hpp"
  11:src/../h/tcb.hpp **** #include "../test/printing.hpp"
  12:src/../h/tcb.hpp **** 
  13:src/../h/tcb.hpp **** enum threadNames
  14:src/../h/tcb.hpp **** {
  15:src/../h/tcb.hpp ****     mainThread = 1,
  16:src/../h/tcb.hpp ****     consoleThread = 4,
  17:src/../h/tcb.hpp ****     idleThread = 2,
  18:src/../h/tcb.hpp ****     userMainThread = 3
  19:src/../h/tcb.hpp **** };
  20:src/../h/tcb.hpp **** // Thread Control Block
  21:src/../h/tcb.hpp **** class TCB
  22:src/../h/tcb.hpp **** {
  23:src/../h/tcb.hpp **** public:
  24:src/../h/tcb.hpp ****     ~TCB() { delete[] stack; }
  25:src/../h/tcb.hpp **** 
  26:src/../h/tcb.hpp ****     bool isFinished() const { return finished; }
  27:src/../h/tcb.hpp ****     void setFinished(bool value) { finished = value; }
  28:src/../h/tcb.hpp **** 
  29:src/../h/tcb.hpp ****     bool isBlocked() const { return blocked; }
  30:src/../h/tcb.hpp ****     void setBlocked(bool value) { blocked = value; }
  46              		.loc 2 30 35 is_stmt 1
  47              		.loc 2 30 43 is_stmt 0
  48 003c 13071000 		li	a4,1
  49 0040 A388E702 		sb	a4,49(a5)
  50              	.LVL2:
  51              	.LBE18:
  52              	.LBE17:
  17:src/Sem.cpp   ****     TCB::dispatch();
  53              		.loc 1 17 5 is_stmt 1
  54              		.loc 1 17 18 is_stmt 0
  55 0044 97000000 		call	_ZN3TCB8dispatchEv@plt
  55      E7800000 
  56              	.LVL3:
  18:src/Sem.cpp   **** }
  57              		.loc 1 18 1
  58 004c 83308100 		ld	ra,8(sp)
  59              		.cfi_remember_state
  60              		.cfi_restore 1
  61 0050 03340100 		ld	s0,0(sp)
  62              		.cfi_restore 8
  63              		.cfi_def_cfa 2, 16
  64 0054 13010101 		addi	sp,sp,16
GAS LISTING /tmp/ccwMkC5w.s 			page 3


  65              		.cfi_def_cfa_offset 0
  66 0058 67800000 		jr	ra
  67              	.LVL4:
  68              	.L2:
  69              		.cfi_restore_state
  13:src/Sem.cpp   ****         tail = TCB::running;
  70              		.loc 1 13 9 is_stmt 1
  13:src/Sem.cpp   ****         tail = TCB::running;
  71              		.loc 1 13 14 is_stmt 0
  72 005c 97070000 		la	a5,_ZN3TCB7runningE
  72      83B70700 
  73 0064 83B70700 		ld	a5,0(a5)
  74 0068 2334F500 		sd	a5,8(a0)
  14:src/Sem.cpp   ****     }
  75              		.loc 1 14 9 is_stmt 1
  14:src/Sem.cpp   ****     }
  76              		.loc 1 14 14 is_stmt 0
  77 006c 2338F500 		sd	a5,16(a0)
  78 0070 6FF01FFC 		j	.L3
  79              		.cfi_endproc
  80              	.LFE29:
  82              		.align	2
  83              		.globl	_ZN3Sem7unblockEv
  85              	_ZN3Sem7unblockEv:
  86              	.LFB30:
  19:src/Sem.cpp   **** 
  20:src/Sem.cpp   **** void Sem::unblock() {
  87              		.loc 1 20 21 is_stmt 1
  88              		.cfi_startproc
  89              	.LVL5:
  90 0074 93070500 		mv	a5,a0
  21:src/Sem.cpp   ****     if (head == nullptr) tail = nullptr;
  91              		.loc 1 21 5
  92              	.LBB19:
  93              		.loc 1 21 9 is_stmt 0
  94 0078 03358500 		ld	a0,8(a0)
  95              	.LVL6:
  96              		.loc 1 21 5
  97 007c 630E0502 		beqz	a0,.L11
  98              	.LBE19:
  20:src/Sem.cpp   ****     if (head == nullptr) tail = nullptr;
  99              		.loc 1 20 21
 100 0080 130101FF 		addi	sp,sp,-16
 101              		.cfi_def_cfa_offset 16
 102 0084 23341100 		sd	ra,8(sp)
 103 0088 23308100 		sd	s0,0(sp)
 104              		.cfi_offset 1, -8
 105              		.cfi_offset 8, -16
 106 008c 13040101 		addi	s0,sp,16
 107              		.cfi_def_cfa 8, 0
 108              	.LBB23:
 109              	.LBB20:
  22:src/Sem.cpp   ****     else {
  23:src/Sem.cpp   ****         TCB* tmp = head;
 110              		.loc 1 23 9 is_stmt 1
 111              	.LVL7:
  24:src/Sem.cpp   ****         head = head->nextSem;
GAS LISTING /tmp/ccwMkC5w.s 			page 4


 112              		.loc 1 24 9
 113              		.loc 1 24 22 is_stmt 0
 114 0090 03378503 		ld	a4,56(a0)
 115              		.loc 1 24 14
 116 0094 23B4E700 		sd	a4,8(a5)
  25:src/Sem.cpp   ****         tmp->nextSem = nullptr;
 117              		.loc 1 25 9 is_stmt 1
 118              		.loc 1 25 22 is_stmt 0
 119 0098 233C0502 		sd	zero,56(a0)
  26:src/Sem.cpp   ****         tmp->setBlocked(false);
 120              		.loc 1 26 9 is_stmt 1
 121              	.LVL8:
 122              	.LBB21:
 123              	.LBB22:
 124              		.loc 2 30 35
 125              		.loc 2 30 43 is_stmt 0
 126 009c A3080502 		sb	zero,49(a0)
 127              	.LVL9:
 128              	.LBE22:
 129              	.LBE21:
  27:src/Sem.cpp   ****         Scheduler::put(tmp);
 130              		.loc 1 27 9 is_stmt 1
 131              		.loc 1 27 23 is_stmt 0
 132 00a0 97000000 		call	_ZN9Scheduler3putEP3TCB@plt
 132      E7800000 
 133              	.LVL10:
 134              	.LBE20:
 135              	.LBE23:
  28:src/Sem.cpp   ****     }
  29:src/Sem.cpp   **** }
 136              		.loc 1 29 1
 137 00a8 83308100 		ld	ra,8(sp)
 138              		.cfi_restore 1
 139 00ac 03340100 		ld	s0,0(sp)
 140              		.cfi_restore 8
 141              		.cfi_def_cfa 2, 16
 142 00b0 13010101 		addi	sp,sp,16
 143              		.cfi_def_cfa_offset 0
 144 00b4 67800000 		jr	ra
 145              	.LVL11:
 146              	.L11:
 147              	.LBB24:
  21:src/Sem.cpp   ****     else {
 148              		.loc 1 21 26 is_stmt 1 discriminator 1
  21:src/Sem.cpp   ****     else {
 149              		.loc 1 21 31 is_stmt 0 discriminator 1
 150 00b8 23B80700 		sd	zero,16(a5)
 151 00bc 67800000 		ret
 152              	.LBE24:
 153              		.cfi_endproc
 154              	.LFE30:
 156              		.align	2
 157              		.globl	_ZN3Sem4waitEv
 159              	_ZN3Sem4waitEv:
 160              	.LFB31:
  30:src/Sem.cpp   **** 
  31:src/Sem.cpp   **** int Sem::wait() {
GAS LISTING /tmp/ccwMkC5w.s 			page 5


 161              		.loc 1 31 17 is_stmt 1
 162              		.cfi_startproc
 163              	.LVL12:
 164 00c0 130101FE 		addi	sp,sp,-32
 165              		.cfi_def_cfa_offset 32
 166 00c4 233C1100 		sd	ra,24(sp)
 167 00c8 23388100 		sd	s0,16(sp)
 168 00cc 23349100 		sd	s1,8(sp)
 169              		.cfi_offset 1, -8
 170              		.cfi_offset 8, -16
 171              		.cfi_offset 9, -24
 172 00d0 13040102 		addi	s0,sp,32
 173              		.cfi_def_cfa 8, 0
 174 00d4 93040500 		mv	s1,a0
  32:src/Sem.cpp   ****     if(--val < 0) block();
 175              		.loc 1 32 5
 176              		.loc 1 32 10 is_stmt 0
 177 00d8 83274500 		lw	a5,4(a0)
 178              		.loc 1 32 8
 179 00dc 9B87F7FF 		addiw	a5,a5,-1
 180              		.loc 1 32 14
 181 00e0 2322F500 		sw	a5,4(a0)
 182              		.loc 1 32 5
 183 00e4 13970702 		slli	a4,a5,32
 184 00e8 63420702 		bltz	a4,.L17
 185              	.LVL13:
 186              	.L13:
  33:src/Sem.cpp   ****     if (isDealocated()) return -1;
 187              		.loc 1 33 5 is_stmt 1
 188              	.LBB25:
 189              	.LBB26:
 190              		.file 3 "src/../h/Sem.hpp"
   1:src/../h/Sem.hpp **** //
   2:src/../h/Sem.hpp **** // Created by os on 6/26/24.
   3:src/../h/Sem.hpp **** //
   4:src/../h/Sem.hpp **** 
   5:src/../h/Sem.hpp **** #ifndef PROJECT_BASE_V1_1_SEM_HPP
   6:src/../h/Sem.hpp **** #define PROJECT_BASE_V1_1_SEM_HPP
   7:src/../h/Sem.hpp **** 
   8:src/../h/Sem.hpp **** #include "tcb.hpp"
   9:src/../h/Sem.hpp **** #include "../h/list.hpp"
  10:src/../h/Sem.hpp **** 
  11:src/../h/Sem.hpp **** class Sem {
  12:src/../h/Sem.hpp **** public:
  13:src/../h/Sem.hpp ****     Sem (unsigned init) : dealoc(false), val(init), head(nullptr), tail(nullptr){}
  14:src/../h/Sem.hpp **** 
  15:src/../h/Sem.hpp ****     int wait ();
  16:src/../h/Sem.hpp ****     void signal ();
  17:src/../h/Sem.hpp ****     int tryWait();
  18:src/../h/Sem.hpp **** 
  19:src/../h/Sem.hpp ****     int getValue () const { return val; }
  20:src/../h/Sem.hpp **** 
  21:src/../h/Sem.hpp ****     bool isDealocated() const {return dealoc;}
 191              		.loc 3 21 32
 192              		.loc 3 21 39 is_stmt 0
 193 00ec 83C70400 		lbu	a5,0(s1)
 194              	.LVL14:
GAS LISTING /tmp/ccwMkC5w.s 			page 6


 195              	.LBE26:
 196              	.LBE25:
 197              		.loc 1 33 5
 198 00f0 63940702 		bnez	a5,.L15
  34:src/Sem.cpp   ****     return 0;
 199              		.loc 1 34 12
 200 00f4 13050000 		li	a0,0
 201              	.L14:
  35:src/Sem.cpp   **** }
 202              		.loc 1 35 1
 203 00f8 83308101 		ld	ra,24(sp)
 204              		.cfi_remember_state
 205              		.cfi_restore 1
 206 00fc 03340101 		ld	s0,16(sp)
 207              		.cfi_restore 8
 208              		.cfi_def_cfa 2, 32
 209 0100 83348100 		ld	s1,8(sp)
 210              		.cfi_restore 9
 211              	.LVL15:
 212 0104 13010102 		addi	sp,sp,32
 213              		.cfi_def_cfa_offset 0
 214 0108 67800000 		jr	ra
 215              	.LVL16:
 216              	.L17:
 217              		.cfi_restore_state
  32:src/Sem.cpp   ****     if (isDealocated()) return -1;
 218              		.loc 1 32 19 is_stmt 1 discriminator 1
  32:src/Sem.cpp   ****     if (isDealocated()) return -1;
 219              		.loc 1 32 24 is_stmt 0 discriminator 1
 220 010c 97000000 		call	_ZN3Sem5blockEv
 220      E7800000 
 221              	.LVL17:
 222 0114 6FF09FFD 		j	.L13
 223              	.L15:
  33:src/Sem.cpp   ****     return 0;
 224              		.loc 1 33 33
 225 0118 1305F0FF 		li	a0,-1
 226 011c 6FF0DFFD 		j	.L14
 227              		.cfi_endproc
 228              	.LFE31:
 230              		.align	2
 231              		.globl	_ZN3Sem6signalEv
 233              	_ZN3Sem6signalEv:
 234              	.LFB32:
  36:src/Sem.cpp   **** 
  37:src/Sem.cpp   **** void Sem::signal() {
 235              		.loc 1 37 20 is_stmt 1
 236              		.cfi_startproc
 237              	.LVL18:
  38:src/Sem.cpp   ****     if(++val <= 0) unblock();
 238              		.loc 1 38 5
 239              		.loc 1 38 10 is_stmt 0
 240 0120 83274500 		lw	a5,4(a0)
 241              		.loc 1 38 8
 242 0124 9B871700 		addiw	a5,a5,1
 243 0128 1B870700 		sext.w	a4,a5
 244              		.loc 1 38 14
GAS LISTING /tmp/ccwMkC5w.s 			page 7


 245 012c 2322F500 		sw	a5,4(a0)
 246              		.loc 1 38 5
 247 0130 6354E000 		blez	a4,.L24
 248 0134 67800000 		ret
 249              	.L24:
  37:src/Sem.cpp   ****     if(++val <= 0) unblock();
 250              		.loc 1 37 20 discriminator 1
 251 0138 130101FF 		addi	sp,sp,-16
 252              		.cfi_def_cfa_offset 16
 253 013c 23341100 		sd	ra,8(sp)
 254 0140 23308100 		sd	s0,0(sp)
 255              		.cfi_offset 1, -8
 256              		.cfi_offset 8, -16
 257 0144 13040101 		addi	s0,sp,16
 258              		.cfi_def_cfa 8, 0
 259              		.loc 1 38 20 is_stmt 1 discriminator 1
 260              		.loc 1 38 27 is_stmt 0 discriminator 1
 261 0148 97000000 		call	_ZN3Sem7unblockEv
 261      E7800000 
 262              	.LVL19:
  39:src/Sem.cpp   **** }
 263              		.loc 1 39 1 discriminator 1
 264 0150 83308100 		ld	ra,8(sp)
 265              		.cfi_restore 1
 266 0154 03340100 		ld	s0,0(sp)
 267              		.cfi_restore 8
 268              		.cfi_def_cfa 2, 16
 269 0158 13010101 		addi	sp,sp,16
 270              		.cfi_def_cfa_offset 0
 271 015c 67800000 		jr	ra
 272              		.cfi_endproc
 273              	.LFE32:
 275              		.align	2
 276              		.globl	_ZN3Sem7tryWaitEv
 278              	_ZN3Sem7tryWaitEv:
 279              	.LFB33:
  40:src/Sem.cpp   **** 
  41:src/Sem.cpp   **** int Sem::tryWait() {
 280              		.loc 1 41 20 is_stmt 1
 281              		.cfi_startproc
 282              	.LVL20:
 283 0160 130101FF 		addi	sp,sp,-16
 284              		.cfi_def_cfa_offset 16
 285 0164 23348100 		sd	s0,8(sp)
 286              		.cfi_offset 8, -8
 287 0168 13040101 		addi	s0,sp,16
 288              		.cfi_def_cfa 8, 0
  42:src/Sem.cpp   ****     if(--val < 0) return 0;
 289              		.loc 1 42 5
 290              		.loc 1 42 10 is_stmt 0
 291 016c 83274500 		lw	a5,4(a0)
 292              		.loc 1 42 8
 293 0170 9B87F7FF 		addiw	a5,a5,-1
 294              		.loc 1 42 14
 295 0174 2322F500 		sw	a5,4(a0)
 296              		.loc 1 42 5
 297 0178 13970702 		slli	a4,a5,32
GAS LISTING /tmp/ccwMkC5w.s 			page 8


 298 017c 634A0700 		bltz	a4,.L29
  43:src/Sem.cpp   ****     else if(val >= 0) return 1;
 299              		.loc 1 43 30
 300 0180 13051000 		li	a0,1
 301              	.LVL21:
 302              	.L26:
  44:src/Sem.cpp   ****     else return -1;
  45:src/Sem.cpp   **** }
 303              		.loc 1 45 1
 304 0184 03348100 		ld	s0,8(sp)
 305              		.cfi_remember_state
 306              		.cfi_restore 8
 307              		.cfi_def_cfa 2, 16
 308 0188 13010101 		addi	sp,sp,16
 309              		.cfi_def_cfa_offset 0
 310 018c 67800000 		jr	ra
 311              	.LVL22:
 312              	.L29:
 313              		.cfi_restore_state
  42:src/Sem.cpp   ****     else if(val >= 0) return 1;
 314              		.loc 1 42 26
 315 0190 13050000 		li	a0,0
 316              	.LVL23:
 317 0194 6FF01FFF 		j	.L26
 318              		.cfi_endproc
 319              	.LFE33:
 321              		.align	2
 322              		.globl	_ZN3Sem8closeSemEPS_
 324              	_ZN3Sem8closeSemEPS_:
 325              	.LFB35:
  46:src/Sem.cpp   **** 
  47:src/Sem.cpp   **** Sem* Sem::createSem(uint64 init) {
  48:src/Sem.cpp   ****     return new Sem(init);
  49:src/Sem.cpp   **** }
  50:src/Sem.cpp   **** 
  51:src/Sem.cpp   **** int Sem::closeSem(Sem *sem ) {
 326              		.loc 1 51 30 is_stmt 1
 327              		.cfi_startproc
 328              	.LVL24:
  52:src/Sem.cpp   ****     if(sem == nullptr) return -1;
 329              		.loc 1 52 5
 330 0198 63020504 		beqz	a0,.L33
  51:src/Sem.cpp   ****     if(sem == nullptr) return -1;
 331              		.loc 1 51 30 is_stmt 0
 332 019c 130101FE 		addi	sp,sp,-32
 333              		.cfi_def_cfa_offset 32
 334 01a0 233C1100 		sd	ra,24(sp)
 335 01a4 23388100 		sd	s0,16(sp)
 336 01a8 23349100 		sd	s1,8(sp)
 337 01ac 23302101 		sd	s2,0(sp)
 338              		.cfi_offset 1, -8
 339              		.cfi_offset 8, -16
 340              		.cfi_offset 9, -24
 341              		.cfi_offset 18, -32
 342 01b0 13040102 		addi	s0,sp,32
 343              		.cfi_def_cfa 8, 0
 344 01b4 13090500 		mv	s2,a0
GAS LISTING /tmp/ccwMkC5w.s 			page 9


  53:src/Sem.cpp   ****     sem->setDealoc(true);
 345              		.loc 1 53 5 is_stmt 1
 346              	.LVL25:
 347              	.LBB27:
 348              	.LBB28:
  22:src/../h/Sem.hpp ****     void setDealoc(bool value) { dealoc = value;}
 349              		.loc 3 22 34
 350              		.loc 3 22 41 is_stmt 0
 351 01b8 93071000 		li	a5,1
 352 01bc 2300F500 		sb	a5,0(a0)
 353              	.LVL26:
 354              	.LBE28:
 355              	.LBE27:
  54:src/Sem.cpp   ****     int i = sem->getValue();
 356              		.loc 1 54 5 is_stmt 1
 357              	.LBB29:
 358              	.LBB30:
  19:src/../h/Sem.hpp **** 
 359              		.loc 3 19 29
  19:src/../h/Sem.hpp **** 
 360              		.loc 3 19 36 is_stmt 0
 361 01c0 83244500 		lw	s1,4(a0)
 362              	.LVL27:
 363              	.L32:
 364              	.LBE30:
 365              	.LBE29:
  55:src/Sem.cpp   ****     for (;i <= 0; i++) sem->signal();
 366              		.loc 1 55 5 is_stmt 1 discriminator 2
 367              		.loc 1 55 13 discriminator 2
 368 01c4 63409002 		bgtz	s1,.L34
 369              		.loc 1 55 24 discriminator 1
 370              		.loc 1 55 35 is_stmt 0 discriminator 1
 371 01c8 13050900 		mv	a0,s2
 372 01cc 97000000 		call	_ZN3Sem6signalEv
 372      E7800000 
 373              	.LVL28:
 374              		.loc 1 55 5 is_stmt 1 discriminator 1
 375 01d4 9B841400 		addiw	s1,s1,1
 376              	.LVL29:
 377 01d8 6FF0DFFE 		j	.L32
 378              	.LVL30:
 379              	.L33:
 380              		.cfi_def_cfa_register 2
 381              		.cfi_restore 1
 382              		.cfi_restore 8
 383              		.cfi_restore 9
 384              		.cfi_restore 18
  52:src/Sem.cpp   ****     sem->setDealoc(true);
 385              		.loc 1 52 32 is_stmt 0
 386 01dc 1305F0FF 		li	a0,-1
 387              	.LVL31:
  56:src/Sem.cpp   **** 
  57:src/Sem.cpp   ****     return 0;
  58:src/Sem.cpp   **** }
 388              		.loc 1 58 1
 389 01e0 67800000 		ret
 390              	.LVL32:
GAS LISTING /tmp/ccwMkC5w.s 			page 10


 391              	.L34:
 392              		.cfi_def_cfa_register 8
 393              		.cfi_offset 1, -8
 394              		.cfi_offset 8, -16
 395              		.cfi_offset 9, -24
 396              		.cfi_offset 18, -32
  57:src/Sem.cpp   **** }
 397              		.loc 1 57 12
 398 01e4 13050000 		li	a0,0
 399              		.loc 1 58 1
 400 01e8 83308101 		ld	ra,24(sp)
 401              		.cfi_restore 1
 402 01ec 03340101 		ld	s0,16(sp)
 403              		.cfi_restore 8
 404              		.cfi_def_cfa 2, 32
 405 01f0 83348100 		ld	s1,8(sp)
 406              		.cfi_restore 9
 407              	.LVL33:
 408 01f4 03390100 		ld	s2,0(sp)
 409              		.cfi_restore 18
 410              	.LVL34:
 411 01f8 13010102 		addi	sp,sp,32
 412              		.cfi_def_cfa_offset 0
 413 01fc 67800000 		jr	ra
 414              		.cfi_endproc
 415              	.LFE35:
 417              		.align	2
 418              		.globl	_ZN3SemnwEm
 420              	_ZN3SemnwEm:
 421              	.LFB36:
  59:src/Sem.cpp   **** 
  60:src/Sem.cpp   **** 
  61:src/Sem.cpp   **** 
  62:src/Sem.cpp   **** 
  63:src/Sem.cpp   **** 
  64:src/Sem.cpp   **** void *Sem::operator new(size_t size) {
 422              		.loc 1 64 38 is_stmt 1
 423              		.cfi_startproc
 424              	.LVL35:
 425 0200 130101FF 		addi	sp,sp,-16
 426              		.cfi_def_cfa_offset 16
 427 0204 23341100 		sd	ra,8(sp)
 428 0208 23308100 		sd	s0,0(sp)
 429              		.cfi_offset 1, -8
 430              		.cfi_offset 8, -16
 431 020c 13040101 		addi	s0,sp,16
 432              		.cfi_def_cfa 8, 0
  65:src/Sem.cpp   ****     size = ((size + MemoryAllocator::memSegSize) % MEM_BLOCK_SIZE == 0 ? (size + MemoryAllocator::m
 433              		.loc 1 65 5
 434              		.loc 1 65 19 is_stmt 0
 435 0210 97070000 		la	a5,_ZN15MemoryAllocator10memSegSizeE
 435      83B70700 
 436 0218 83B70700 		ld	a5,0(a5)
 437 021c 3305F500 		add	a0,a0,a5
 438              	.LVL36:
 439              		.loc 1 65 50
 440 0220 9377F503 		andi	a5,a0,63
GAS LISTING /tmp/ccwMkC5w.s 			page 11


 441              		.loc 1 65 72
 442 0224 63900702 		bnez	a5,.L40
 443              		.loc 1 65 72 discriminator 1
 444 0228 13556500 		srli	a0,a0,6
 445              	.L41:
 446              	.LVL37:
  66:src/Sem.cpp   ****             (size + MemoryAllocator::memSegSize) / MEM_BLOCK_SIZE + 1);
  67:src/Sem.cpp   **** 
  68:src/Sem.cpp   ****     return MemoryAllocator::mem_alloc(size);
 447              		.loc 1 68 5 is_stmt 1 discriminator 4
 448              		.loc 1 68 38 is_stmt 0 discriminator 4
 449 022c 97000000 		call	_ZN15MemoryAllocator9mem_allocEm@plt
 449      E7800000 
 450              	.LVL38:
  69:src/Sem.cpp   **** }
 451              		.loc 1 69 1 discriminator 4
 452 0234 83308100 		ld	ra,8(sp)
 453              		.cfi_remember_state
 454              		.cfi_restore 1
 455 0238 03340100 		ld	s0,0(sp)
 456              		.cfi_restore 8
 457              		.cfi_def_cfa 2, 16
 458 023c 13010101 		addi	sp,sp,16
 459              		.cfi_def_cfa_offset 0
 460 0240 67800000 		jr	ra
 461              	.LVL39:
 462              	.L40:
 463              		.cfi_restore_state
  66:src/Sem.cpp   ****             (size + MemoryAllocator::memSegSize) / MEM_BLOCK_SIZE + 1);
 464              		.loc 1 66 50 discriminator 2
 465 0244 13556500 		srli	a0,a0,6
  65:src/Sem.cpp   ****     size = ((size + MemoryAllocator::memSegSize) % MEM_BLOCK_SIZE == 0 ? (size + MemoryAllocator::m
 466              		.loc 1 65 72 discriminator 2
 467 0248 13051500 		addi	a0,a0,1
 468 024c 6FF01FFE 		j	.L41
 469              		.cfi_endproc
 470              	.LFE36:
 472              		.align	2
 473              		.globl	_ZN3Sem9createSemEm
 475              	_ZN3Sem9createSemEm:
 476              	.LFB34:
  47:src/Sem.cpp   ****     return new Sem(init);
 477              		.loc 1 47 34 is_stmt 1
 478              		.cfi_startproc
 479              	.LVL40:
 480 0250 130101FE 		addi	sp,sp,-32
 481              		.cfi_def_cfa_offset 32
 482 0254 233C1100 		sd	ra,24(sp)
 483 0258 23388100 		sd	s0,16(sp)
 484 025c 23349100 		sd	s1,8(sp)
 485              		.cfi_offset 1, -8
 486              		.cfi_offset 8, -16
 487              		.cfi_offset 9, -24
 488 0260 13040102 		addi	s0,sp,32
 489              		.cfi_def_cfa 8, 0
 490 0264 93040500 		mv	s1,a0
  48:src/Sem.cpp   **** }
GAS LISTING /tmp/ccwMkC5w.s 			page 12


 491              		.loc 1 48 5
  48:src/Sem.cpp   **** }
 492              		.loc 1 48 24 is_stmt 0
 493 0268 13058001 		li	a0,24
 494              	.LVL41:
 495 026c 97000000 		call	_ZN3SemnwEm
 495      E7800000 
 496              	.LVL42:
 497              	.LBB31:
 498              	.LBB32:
  13:src/../h/Sem.hpp **** 
 499              		.loc 3 13 80
 500 0274 23000500 		sb	zero,0(a0)
 501 0278 23229500 		sw	s1,4(a0)
 502 027c 23340500 		sd	zero,8(a0)
 503 0280 23380500 		sd	zero,16(a0)
 504              	.LVL43:
 505              	.LBE32:
 506              	.LBE31:
  49:src/Sem.cpp   **** 
 507              		.loc 1 49 1
 508 0284 83308101 		ld	ra,24(sp)
 509              		.cfi_restore 1
 510 0288 03340101 		ld	s0,16(sp)
 511              		.cfi_restore 8
 512              		.cfi_def_cfa 2, 32
 513 028c 83348100 		ld	s1,8(sp)
 514              		.cfi_restore 9
 515              	.LVL44:
 516 0290 13010102 		addi	sp,sp,32
 517              		.cfi_def_cfa_offset 0
 518 0294 67800000 		jr	ra
 519              		.cfi_endproc
 520              	.LFE34:
 522              		.align	2
 523              		.globl	_ZN3SemdlEPv
 525              	_ZN3SemdlEPv:
 526              	.LFB37:
  70:src/Sem.cpp   **** 
  71:src/Sem.cpp   **** void Sem::operator delete(void *ptr) {
 527              		.loc 1 71 38 is_stmt 1
 528              		.cfi_startproc
 529              	.LVL45:
 530 0298 130101FF 		addi	sp,sp,-16
 531              		.cfi_def_cfa_offset 16
 532 029c 23341100 		sd	ra,8(sp)
 533 02a0 23308100 		sd	s0,0(sp)
 534              		.cfi_offset 1, -8
 535              		.cfi_offset 8, -16
 536 02a4 13040101 		addi	s0,sp,16
 537              		.cfi_def_cfa 8, 0
  72:src/Sem.cpp   ****     MemoryAllocator::mem_free(ptr);
 538              		.loc 1 72 5
 539              		.loc 1 72 30 is_stmt 0
 540 02a8 97000000 		call	_ZN15MemoryAllocator8mem_freeEPv@plt
 540      E7800000 
 541              	.LVL46:
GAS LISTING /tmp/ccwMkC5w.s 			page 13


  73:src/Sem.cpp   **** }
 542              		.loc 1 73 1
 543 02b0 83308100 		ld	ra,8(sp)
 544              		.cfi_restore 1
 545 02b4 03340100 		ld	s0,0(sp)
 546              		.cfi_restore 8
 547              		.cfi_def_cfa 2, 16
 548 02b8 13010101 		addi	sp,sp,16
 549              		.cfi_def_cfa_offset 0
 550 02bc 67800000 		jr	ra
 551              		.cfi_endproc
 552              	.LFE37:
 554              		.align	2
 555              		.globl	_ZN3SemnaEm
 557              	_ZN3SemnaEm:
 558              	.LFB38:
  74:src/Sem.cpp   **** 
  75:src/Sem.cpp   **** void *Sem::operator new[](size_t size) {
 559              		.loc 1 75 40 is_stmt 1
 560              		.cfi_startproc
 561              	.LVL47:
 562 02c0 130101FF 		addi	sp,sp,-16
 563              		.cfi_def_cfa_offset 16
 564 02c4 23341100 		sd	ra,8(sp)
 565 02c8 23308100 		sd	s0,0(sp)
 566              		.cfi_offset 1, -8
 567              		.cfi_offset 8, -16
 568 02cc 13040101 		addi	s0,sp,16
 569              		.cfi_def_cfa 8, 0
  76:src/Sem.cpp   **** 
  77:src/Sem.cpp   ****     size = ((size + MemoryAllocator::memSegSize) % MEM_BLOCK_SIZE == 0 ? (size + MemoryAllocator::m
 570              		.loc 1 77 5
 571              		.loc 1 77 19 is_stmt 0
 572 02d0 97070000 		la	a5,_ZN15MemoryAllocator10memSegSizeE
 572      83B70700 
 573 02d8 83B70700 		ld	a5,0(a5)
 574 02dc 3305F500 		add	a0,a0,a5
 575              	.LVL48:
 576              		.loc 1 77 50
 577 02e0 9377F503 		andi	a5,a0,63
 578              		.loc 1 77 72
 579 02e4 63900702 		bnez	a5,.L48
 580              		.loc 1 77 72 discriminator 1
 581 02e8 13556500 		srli	a0,a0,6
 582              	.L49:
 583              	.LVL49:
  78:src/Sem.cpp   ****             (size + MemoryAllocator::memSegSize) / MEM_BLOCK_SIZE + 1);
  79:src/Sem.cpp   **** 
  80:src/Sem.cpp   ****     return MemoryAllocator::mem_alloc(size);
 584              		.loc 1 80 5 is_stmt 1 discriminator 4
 585              		.loc 1 80 38 is_stmt 0 discriminator 4
 586 02ec 97000000 		call	_ZN15MemoryAllocator9mem_allocEm@plt
 586      E7800000 
 587              	.LVL50:
  81:src/Sem.cpp   **** }
 588              		.loc 1 81 1 discriminator 4
 589 02f4 83308100 		ld	ra,8(sp)
GAS LISTING /tmp/ccwMkC5w.s 			page 14


 590              		.cfi_remember_state
 591              		.cfi_restore 1
 592 02f8 03340100 		ld	s0,0(sp)
 593              		.cfi_restore 8
 594              		.cfi_def_cfa 2, 16
 595 02fc 13010101 		addi	sp,sp,16
 596              		.cfi_def_cfa_offset 0
 597 0300 67800000 		jr	ra
 598              	.LVL51:
 599              	.L48:
 600              		.cfi_restore_state
  78:src/Sem.cpp   ****             (size + MemoryAllocator::memSegSize) / MEM_BLOCK_SIZE + 1);
 601              		.loc 1 78 50 discriminator 2
 602 0304 13556500 		srli	a0,a0,6
  77:src/Sem.cpp   ****             (size + MemoryAllocator::memSegSize) / MEM_BLOCK_SIZE + 1);
 603              		.loc 1 77 72 discriminator 2
 604 0308 13051500 		addi	a0,a0,1
 605 030c 6FF01FFE 		j	.L49
 606              		.cfi_endproc
 607              	.LFE38:
 609              		.align	2
 610              		.globl	_ZN3SemdaEPv
 612              	_ZN3SemdaEPv:
 613              	.LFB39:
  82:src/Sem.cpp   **** 
  83:src/Sem.cpp   **** void Sem::operator delete[](void *ptr) {
 614              		.loc 1 83 40 is_stmt 1
 615              		.cfi_startproc
 616              	.LVL52:
 617 0310 130101FF 		addi	sp,sp,-16
 618              		.cfi_def_cfa_offset 16
 619 0314 23341100 		sd	ra,8(sp)
 620 0318 23308100 		sd	s0,0(sp)
 621              		.cfi_offset 1, -8
 622              		.cfi_offset 8, -16
 623 031c 13040101 		addi	s0,sp,16
 624              		.cfi_def_cfa 8, 0
  84:src/Sem.cpp   ****     MemoryAllocator::mem_free(ptr);
 625              		.loc 1 84 5
 626              		.loc 1 84 30 is_stmt 0
 627 0320 97000000 		call	_ZN15MemoryAllocator8mem_freeEPv@plt
 627      E7800000 
 628              	.LVL53:
  85:src/Sem.cpp   **** }
 629              		.loc 1 85 1
 630 0328 83308100 		ld	ra,8(sp)
 631              		.cfi_restore 1
 632 032c 03340100 		ld	s0,0(sp)
 633              		.cfi_restore 8
 634              		.cfi_def_cfa 2, 16
 635 0330 13010101 		addi	sp,sp,16
 636              		.cfi_def_cfa_offset 0
 637 0334 67800000 		jr	ra
 638              		.cfi_endproc
 639              	.LFE39:
 641              	.Letext0:
 642              		.file 4 "src/../h/../lib/hw.h"
GAS LISTING /tmp/ccwMkC5w.s 			page 15


 643              		.file 5 "src/../h/scheduler.hpp"
 644              		.file 6 "src/../h/MemoryAllocator.hpp"
 645              		.file 7 "src/../h/syscall_c.hpp"
GAS LISTING /tmp/ccwMkC5w.s 			page 16

