GAS LISTING /tmp/cc8kQIOK.s 			page 1


   1              		.file	"Semaphore.cpp"
   2              		.option pic
   3              		.option norelax
   4              		.text
   5              	.Ltext0:
   6              		.align	2
   7              		.globl	_ZN9SemaphoreD2Ev
   9              	_ZN9SemaphoreD2Ev:
  10              	.LFB32:
  11              		.file 1 "src/Semaphore.cpp"
   1:src/Semaphore.cpp **** //
   2:src/Semaphore.cpp **** // Created by os on 6/26/24.
   3:src/Semaphore.cpp **** //
   4:src/Semaphore.cpp **** #include "../h/syscall_cpp.hpp"
   5:src/Semaphore.cpp **** #include "../h/Sem.hpp"
   6:src/Semaphore.cpp **** 
   7:src/Semaphore.cpp **** Semaphore::Semaphore(unsigned int init) {
   8:src/Semaphore.cpp ****     sem_open(&myHandle, init);
   9:src/Semaphore.cpp **** }
  10:src/Semaphore.cpp **** 
  11:src/Semaphore.cpp **** Semaphore::~Semaphore() {
  12              		.loc 1 11 1
  13              		.cfi_startproc
  14              	.LVL0:
  15 0000 130101FF 		addi	sp,sp,-16
  16              		.cfi_def_cfa_offset 16
  17 0004 23348100 		sd	s0,8(sp)
  18              		.cfi_offset 8, -8
  19 0008 13040101 		addi	s0,sp,16
  20              		.cfi_def_cfa 8, 0
  12:src/Semaphore.cpp ****     //sem_close(myHandle);
  13:src/Semaphore.cpp ****     //delete (Sem*)myHandle;
  14:src/Semaphore.cpp **** }
  21              		.loc 1 14 1 is_stmt 0
  22 000c 03348100 		ld	s0,8(sp)
  23              		.cfi_restore 8
  24              		.cfi_def_cfa 2, 16
  25 0010 13010101 		addi	sp,sp,16
  26              		.cfi_def_cfa_offset 0
  27 0014 67800000 		jr	ra
  28              		.cfi_endproc
  29              	.LFE32:
  31              		.globl	_ZN9SemaphoreD1Ev
  32              		.set	_ZN9SemaphoreD1Ev,_ZN9SemaphoreD2Ev
  33              		.align	2
  34              		.globl	_ZN9SemaphoreD0Ev
  36              	_ZN9SemaphoreD0Ev:
  37              	.LFB34:
  11:src/Semaphore.cpp ****     //sem_close(myHandle);
  38              		.loc 1 11 1 is_stmt 1
  39              		.cfi_startproc
  40              	.LVL1:
  41 0018 130101FF 		addi	sp,sp,-16
  42              		.cfi_def_cfa_offset 16
  43 001c 23341100 		sd	ra,8(sp)
  44 0020 23308100 		sd	s0,0(sp)
  45              		.cfi_offset 1, -8
GAS LISTING /tmp/cc8kQIOK.s 			page 2


  46              		.cfi_offset 8, -16
  47 0024 13040101 		addi	s0,sp,16
  48              		.cfi_def_cfa 8, 0
  49              		.loc 1 14 1 is_stmt 0
  50 0028 97000000 		call	_ZdlPv@plt
  50      E7800000 
  51              	.LVL2:
  52 0030 83308100 		ld	ra,8(sp)
  53              		.cfi_restore 1
  54 0034 03340100 		ld	s0,0(sp)
  55              		.cfi_restore 8
  56              		.cfi_def_cfa 2, 16
  57 0038 13010101 		addi	sp,sp,16
  58              		.cfi_def_cfa_offset 0
  59 003c 67800000 		jr	ra
  60              		.cfi_endproc
  61              	.LFE34:
  63              		.align	2
  64              		.globl	_ZN9SemaphoreC2Ej
  66              	_ZN9SemaphoreC2Ej:
  67              	.LFB29:
   7:src/Semaphore.cpp ****     sem_open(&myHandle, init);
  68              		.loc 1 7 1 is_stmt 1
  69              		.cfi_startproc
  70              	.LVL3:
  71 0040 130101FF 		addi	sp,sp,-16
  72              		.cfi_def_cfa_offset 16
  73 0044 23341100 		sd	ra,8(sp)
  74 0048 23308100 		sd	s0,0(sp)
  75              		.cfi_offset 1, -8
  76              		.cfi_offset 8, -16
  77 004c 13040101 		addi	s0,sp,16
  78              		.cfi_def_cfa 8, 0
  79              	.LBB2:
   7:src/Semaphore.cpp ****     sem_open(&myHandle, init);
  80              		.loc 1 7 39 is_stmt 0
  81 0050 97070000 		lla	a5,_ZTV9Semaphore+16
  81      93870700 
  82 0058 2330F500 		sd	a5,0(a0)
   8:src/Semaphore.cpp **** }
  83              		.loc 1 8 5 is_stmt 1
   8:src/Semaphore.cpp **** }
  84              		.loc 1 8 13 is_stmt 0
  85 005c 13058500 		addi	a0,a0,8
  86              	.LVL4:
  87 0060 97000000 		call	_Z8sem_openPP4_semj@plt
  87      E7800000 
  88              	.LVL5:
  89              	.LBE2:
   9:src/Semaphore.cpp **** 
  90              		.loc 1 9 1
  91 0068 83308100 		ld	ra,8(sp)
  92              		.cfi_restore 1
  93 006c 03340100 		ld	s0,0(sp)
  94              		.cfi_restore 8
  95              		.cfi_def_cfa 2, 16
  96 0070 13010101 		addi	sp,sp,16
GAS LISTING /tmp/cc8kQIOK.s 			page 3


  97              		.cfi_def_cfa_offset 0
  98 0074 67800000 		jr	ra
  99              		.cfi_endproc
 100              	.LFE29:
 102              		.globl	_ZN9SemaphoreC1Ej
 103              		.set	_ZN9SemaphoreC1Ej,_ZN9SemaphoreC2Ej
 104              		.align	2
 105              		.globl	_ZN9Semaphore4waitEv
 107              	_ZN9Semaphore4waitEv:
 108              	.LFB35:
  15:src/Semaphore.cpp **** 
  16:src/Semaphore.cpp **** int Semaphore::wait() {
 109              		.loc 1 16 23 is_stmt 1
 110              		.cfi_startproc
 111              	.LVL6:
 112 0078 130101FF 		addi	sp,sp,-16
 113              		.cfi_def_cfa_offset 16
 114 007c 23341100 		sd	ra,8(sp)
 115 0080 23308100 		sd	s0,0(sp)
 116              		.cfi_offset 1, -8
 117              		.cfi_offset 8, -16
 118 0084 13040101 		addi	s0,sp,16
 119              		.cfi_def_cfa 8, 0
  17:src/Semaphore.cpp ****     return sem_wait(myHandle);
 120              		.loc 1 17 5
 121              		.loc 1 17 20 is_stmt 0
 122 0088 03358500 		ld	a0,8(a0)
 123              	.LVL7:
 124 008c 97000000 		call	_Z8sem_waitP4_sem@plt
 124      E7800000 
 125              	.LVL8:
  18:src/Semaphore.cpp **** }
 126              		.loc 1 18 1
 127 0094 83308100 		ld	ra,8(sp)
 128              		.cfi_restore 1
 129 0098 03340100 		ld	s0,0(sp)
 130              		.cfi_restore 8
 131              		.cfi_def_cfa 2, 16
 132 009c 13010101 		addi	sp,sp,16
 133              		.cfi_def_cfa_offset 0
 134 00a0 67800000 		jr	ra
 135              		.cfi_endproc
 136              	.LFE35:
 138              		.align	2
 139              		.globl	_ZN9Semaphore6signalEv
 141              	_ZN9Semaphore6signalEv:
 142              	.LFB36:
  19:src/Semaphore.cpp **** 
  20:src/Semaphore.cpp **** int Semaphore::signal() {
 143              		.loc 1 20 25 is_stmt 1
 144              		.cfi_startproc
 145              	.LVL9:
 146 00a4 130101FF 		addi	sp,sp,-16
 147              		.cfi_def_cfa_offset 16
 148 00a8 23341100 		sd	ra,8(sp)
 149 00ac 23308100 		sd	s0,0(sp)
 150              		.cfi_offset 1, -8
GAS LISTING /tmp/cc8kQIOK.s 			page 4


 151              		.cfi_offset 8, -16
 152 00b0 13040101 		addi	s0,sp,16
 153              		.cfi_def_cfa 8, 0
  21:src/Semaphore.cpp ****     return sem_signal(myHandle);
 154              		.loc 1 21 5
 155              		.loc 1 21 22 is_stmt 0
 156 00b4 03358500 		ld	a0,8(a0)
 157              	.LVL10:
 158 00b8 97000000 		call	_Z10sem_signalP4_sem@plt
 158      E7800000 
 159              	.LVL11:
  22:src/Semaphore.cpp **** }
 160              		.loc 1 22 1
 161 00c0 83308100 		ld	ra,8(sp)
 162              		.cfi_restore 1
 163 00c4 03340100 		ld	s0,0(sp)
 164              		.cfi_restore 8
 165              		.cfi_def_cfa 2, 16
 166 00c8 13010101 		addi	sp,sp,16
 167              		.cfi_def_cfa_offset 0
 168 00cc 67800000 		jr	ra
 169              		.cfi_endproc
 170              	.LFE36:
 172              		.align	2
 173              		.globl	_ZN9Semaphore9timedWaitEm
 175              	_ZN9Semaphore9timedWaitEm:
 176              	.LFB37:
  23:src/Semaphore.cpp **** 
  24:src/Semaphore.cpp **** int Semaphore::timedWait(time_t) {
 177              		.loc 1 24 34 is_stmt 1
 178              		.cfi_startproc
 179              	.LVL12:
 180 00d0 130101FF 		addi	sp,sp,-16
 181              		.cfi_def_cfa_offset 16
 182 00d4 23348100 		sd	s0,8(sp)
 183              		.cfi_offset 8, -8
 184 00d8 13040101 		addi	s0,sp,16
 185              		.cfi_def_cfa 8, 0
  25:src/Semaphore.cpp ****     return 0;
 186              		.loc 1 25 5
  26:src/Semaphore.cpp **** }
 187              		.loc 1 26 1 is_stmt 0
 188 00dc 13050000 		li	a0,0
 189              	.LVL13:
 190 00e0 03348100 		ld	s0,8(sp)
 191              		.cfi_restore 8
 192              		.cfi_def_cfa 2, 16
 193 00e4 13010101 		addi	sp,sp,16
 194              		.cfi_def_cfa_offset 0
 195 00e8 67800000 		jr	ra
 196              		.cfi_endproc
 197              	.LFE37:
 199              		.align	2
 200              		.globl	_ZN9Semaphore7tryWaitEv
 202              	_ZN9Semaphore7tryWaitEv:
 203              	.LFB38:
  27:src/Semaphore.cpp **** 
GAS LISTING /tmp/cc8kQIOK.s 			page 5


  28:src/Semaphore.cpp **** int Semaphore::tryWait() {
 204              		.loc 1 28 26 is_stmt 1
 205              		.cfi_startproc
 206              	.LVL14:
 207 00ec 130101FF 		addi	sp,sp,-16
 208              		.cfi_def_cfa_offset 16
 209 00f0 23341100 		sd	ra,8(sp)
 210 00f4 23308100 		sd	s0,0(sp)
 211              		.cfi_offset 1, -8
 212              		.cfi_offset 8, -16
 213 00f8 13040101 		addi	s0,sp,16
 214              		.cfi_def_cfa 8, 0
  29:src/Semaphore.cpp ****     return sem_trywait(myHandle);
 215              		.loc 1 29 5
 216              		.loc 1 29 23 is_stmt 0
 217 00fc 03358500 		ld	a0,8(a0)
 218              	.LVL15:
 219 0100 97000000 		call	_Z11sem_trywaitP4_sem@plt
 219      E7800000 
 220              	.LVL16:
  30:src/Semaphore.cpp **** }
 221              		.loc 1 30 1
 222 0108 83308100 		ld	ra,8(sp)
 223              		.cfi_restore 1
 224 010c 03340100 		ld	s0,0(sp)
 225              		.cfi_restore 8
 226              		.cfi_def_cfa 2, 16
 227 0110 13010101 		addi	sp,sp,16
 228              		.cfi_def_cfa_offset 0
 229 0114 67800000 		jr	ra
 230              		.cfi_endproc
 231              	.LFE38:
 233              		.weak	_ZTV9Semaphore
 234              		.section	.data.rel.ro.local._ZTV9Semaphore,"awG",@progbits,_ZTV9Semaphore,comdat
 235              		.align	3
 238              	_ZTV9Semaphore:
 239 0000 00000000 		.dword	0
 239      00000000 
 240 0008 00000000 		.dword	0
 240      00000000 
 241 0010 00000000 		.dword	_ZN9SemaphoreD1Ev
 241      00000000 
 242 0018 00000000 		.dword	_ZN9SemaphoreD0Ev
 242      00000000 
 243              		.text
 244              	.Letext0:
 245              		.file 2 "src/../h/../lib/hw.h"
 246              		.file 3 "src/../h/syscall_c.hpp"
 247              		.file 4 "src/../h/syscall_cpp.hpp"
GAS LISTING /tmp/cc8kQIOK.s 			page 6

