GAS LISTING /tmp/ccitCiad.s 			page 1


   1              		.file	"syscall_c.cpp"
   2              		.option pic
   3              		.option norelax
   4              		.text
   5              	.Ltext0:
   6              		.align	2
   7              		.globl	_Z9mem_allocm
   9              	_Z9mem_allocm:
  10              	.LFB44:
  11              		.file 1 "src/syscall_c.cpp"
   1:src/syscall_c.cpp **** //
   2:src/syscall_c.cpp **** // Created by os on 6/22/24.
   3:src/syscall_c.cpp **** //
   4:src/syscall_c.cpp **** #include  "../h/syscall_c.hpp"
   5:src/syscall_c.cpp **** #include "../h/MemoryAllocator.hpp"
   6:src/syscall_c.cpp **** #include "../h/riscv.hpp"
   7:src/syscall_c.cpp **** #include "../h/tcb.hpp"
   8:src/syscall_c.cpp **** #include "../lib/console.h"
   9:src/syscall_c.cpp **** 
  10:src/syscall_c.cpp **** 
  11:src/syscall_c.cpp **** void* mem_alloc (size_t size){
  12              		.loc 1 11 30
  13              		.cfi_startproc
  14              	.LVL0:
  15 0000 130101FE 		addi	sp,sp,-32
  16              		.cfi_def_cfa_offset 32
  17 0004 233C1100 		sd	ra,24(sp)
  18 0008 23388100 		sd	s0,16(sp)
  19              		.cfi_offset 1, -8
  20              		.cfi_offset 8, -16
  21 000c 13040102 		addi	s0,sp,32
  22              		.cfi_def_cfa 8, 0
  12:src/syscall_c.cpp ****     size_t  s = size + MemoryAllocator::memSegSize;
  23              		.loc 1 12 5
  24              		.loc 1 12 22 is_stmt 0
  25 0010 97070000 		la	a5,_ZN15MemoryAllocator10memSegSizeE
  25      83B70700 
  26 0018 83B70700 		ld	a5,0(a5)
  27              		.loc 1 12 13
  28 001c 3385A700 		add	a0,a5,a0
  29              	.LVL1:
  13:src/syscall_c.cpp ****     size = (size + MemoryAllocator::memSegSize) / MEM_BLOCK_SIZE;
  30              		.loc 1 13 5 is_stmt 1
  31              		.loc 1 13 10 is_stmt 0
  32 0020 93556500 		srli	a1,a0,6
  33              	.LVL2:
  14:src/syscall_c.cpp ****     if(s % MEM_BLOCK_SIZE != 0) size += 1;
  34              		.loc 1 14 5 is_stmt 1
  35              		.loc 1 14 10 is_stmt 0
  36 0024 1375F503 		andi	a0,a0,63
  37              	.LVL3:
  38              		.loc 1 14 5
  39 0028 63040500 		beqz	a0,.L2
  40              		.loc 1 14 33 is_stmt 1 discriminator 1
  41              		.loc 1 14 38 is_stmt 0 discriminator 1
  42 002c 93851500 		addi	a1,a1,1
  43              	.LVL4:
GAS LISTING /tmp/ccitCiad.s 			page 2


  44              	.L2:
  15:src/syscall_c.cpp **** 
  16:src/syscall_c.cpp ****     Riscv::sysCallWraper(Riscv::memAlloc, size);
  45              		.loc 1 16 5 is_stmt 1
  46              		.loc 1 16 25 is_stmt 0
  47 0030 13051000 		li	a0,1
  48 0034 97000000 		call	_ZN5Riscv13sysCallWraperEz@plt
  48      E7800000 
  49              	.LVL5:
  17:src/syscall_c.cpp ****     uint64 ret = Riscv::r_a0();
  50              		.loc 1 17 5 is_stmt 1
  51              	.LBB20:
  52              	.LBB21:
  53              		.file 2 "src/../h/riscv.hpp"
   1:src/../h/riscv.hpp **** //
   2:src/../h/riscv.hpp **** // Created by marko on 20.4.22..
   3:src/../h/riscv.hpp **** //
   4:src/../h/riscv.hpp **** 
   5:src/../h/riscv.hpp **** #ifndef OS1_VEZBE07_RISCV_CONTEXT_SWITCH_2_INTERRUPT_RISCV_HPP
   6:src/../h/riscv.hpp **** #define OS1_VEZBE07_RISCV_CONTEXT_SWITCH_2_INTERRUPT_RISCV_HPP
   7:src/../h/riscv.hpp **** 
   8:src/../h/riscv.hpp **** #include "../lib/hw.h"
   9:src/../h/riscv.hpp **** 
  10:src/../h/riscv.hpp **** class Riscv
  11:src/../h/riscv.hpp **** {
  12:src/../h/riscv.hpp **** public:
  13:src/../h/riscv.hpp **** 
  14:src/../h/riscv.hpp ****     static void popA0();
  15:src/../h/riscv.hpp **** 
  16:src/../h/riscv.hpp ****     // pop sstatus.spp and sstatus.spie bits (has to be a non inline function)
  17:src/../h/riscv.hpp ****     static void popSppSpie();
  18:src/../h/riscv.hpp **** 
  19:src/../h/riscv.hpp ****     // read register scause
  20:src/../h/riscv.hpp ****     static uint64 r_scause();
  21:src/../h/riscv.hpp **** 
  22:src/../h/riscv.hpp ****     // write register scause
  23:src/../h/riscv.hpp ****     static void w_scause(uint64 scause);
  24:src/../h/riscv.hpp **** 
  25:src/../h/riscv.hpp ****     // read register sepc
  26:src/../h/riscv.hpp ****     static uint64 r_sepc();
  27:src/../h/riscv.hpp **** 
  28:src/../h/riscv.hpp ****     // write register sepc
  29:src/../h/riscv.hpp ****     static void w_sepc(uint64 sepc);
  30:src/../h/riscv.hpp **** 
  31:src/../h/riscv.hpp ****     // read register stvec
  32:src/../h/riscv.hpp ****     static uint64 r_stvec();
  33:src/../h/riscv.hpp **** 
  34:src/../h/riscv.hpp ****     // write register stvec
  35:src/../h/riscv.hpp ****     static void w_stvec(uint64 stvec);
  36:src/../h/riscv.hpp **** 
  37:src/../h/riscv.hpp ****     // read register stval
  38:src/../h/riscv.hpp ****     static uint64 r_stval();
  39:src/../h/riscv.hpp **** 
  40:src/../h/riscv.hpp ****     // write register stval
  41:src/../h/riscv.hpp ****     static void w_stval(uint64 stval);
  42:src/../h/riscv.hpp **** 
  43:src/../h/riscv.hpp ****     enum BitMaskSip
GAS LISTING /tmp/ccitCiad.s 			page 3


  44:src/../h/riscv.hpp ****     {
  45:src/../h/riscv.hpp ****         SIP_SSIP = (1 << 1),
  46:src/../h/riscv.hpp ****         SIP_STIP = (1 << 5),
  47:src/../h/riscv.hpp ****         SIP_SEIP = (1 << 9),
  48:src/../h/riscv.hpp ****     };
  49:src/../h/riscv.hpp **** 
  50:src/../h/riscv.hpp ****     // mask set register sip
  51:src/../h/riscv.hpp ****     static void ms_sip(uint64 mask);
  52:src/../h/riscv.hpp **** 
  53:src/../h/riscv.hpp ****     // mask clear register sip
  54:src/../h/riscv.hpp ****     static void mc_sip(uint64 mask);
  55:src/../h/riscv.hpp **** 
  56:src/../h/riscv.hpp ****     // read register sip
  57:src/../h/riscv.hpp ****     static uint64 r_sip();
  58:src/../h/riscv.hpp **** 
  59:src/../h/riscv.hpp ****     // write register sip
  60:src/../h/riscv.hpp ****     static void w_sip(uint64 sip);
  61:src/../h/riscv.hpp **** 
  62:src/../h/riscv.hpp ****     enum BitMaskSstatus
  63:src/../h/riscv.hpp ****     {
  64:src/../h/riscv.hpp ****         SSTATUS_SIE = (1 << 1),
  65:src/../h/riscv.hpp ****         SSTATUS_SPIE = (1 << 5),
  66:src/../h/riscv.hpp ****         SSTATUS_SPP = (1 << 8),
  67:src/../h/riscv.hpp ****     };
  68:src/../h/riscv.hpp **** 
  69:src/../h/riscv.hpp ****     // mask set register sstatus
  70:src/../h/riscv.hpp ****     static void ms_sstatus(uint64 mask);
  71:src/../h/riscv.hpp **** 
  72:src/../h/riscv.hpp ****     // mask clear register sstatus
  73:src/../h/riscv.hpp ****     static void mc_sstatus(uint64 mask);
  74:src/../h/riscv.hpp **** 
  75:src/../h/riscv.hpp ****     // read register sstatus
  76:src/../h/riscv.hpp ****     static uint64 r_sstatus();
  77:src/../h/riscv.hpp **** 
  78:src/../h/riscv.hpp ****     // write register sstatus
  79:src/../h/riscv.hpp ****     static void w_sstatus(uint64 sstatus);
  80:src/../h/riscv.hpp **** 
  81:src/../h/riscv.hpp ****     // supervisor trap
  82:src/../h/riscv.hpp ****     static void supervisorTrap();
  83:src/../h/riscv.hpp **** 
  84:src/../h/riscv.hpp ****     static void pushRegisters();
  85:src/../h/riscv.hpp **** 
  86:src/../h/riscv.hpp ****     static void popRegisters();
  87:src/../h/riscv.hpp **** 
  88:src/../h/riscv.hpp **** 
  89:src/../h/riscv.hpp **** // read register ao
  90:src/../h/riscv.hpp ****     static uint64 r_a0();
  91:src/../h/riscv.hpp **** // read register a1
  92:src/../h/riscv.hpp ****     static uint64 r_a1();
  93:src/../h/riscv.hpp **** // read register a2
  94:src/../h/riscv.hpp ****     static uint64 r_a2();
  95:src/../h/riscv.hpp **** // read register a3
  96:src/../h/riscv.hpp ****     static uint64 r_a3();
  97:src/../h/riscv.hpp **** // read register a4
  98:src/../h/riscv.hpp ****     static uint64 r_a4();
  99:src/../h/riscv.hpp **** 
 100:src/../h/riscv.hpp **** 
GAS LISTING /tmp/ccitCiad.s 			page 4


 101:src/../h/riscv.hpp ****     //system id codes enum
 102:src/../h/riscv.hpp ****     enum sysId{
 103:src/../h/riscv.hpp ****         memAlloc = 0x01,
 104:src/../h/riscv.hpp ****         memFree = 0x02,
 105:src/../h/riscv.hpp ****         threadCreate = 0x11,
 106:src/../h/riscv.hpp ****         threadExit = 0x12,
 107:src/../h/riscv.hpp ****         threadDispatch = 0x13,
 108:src/../h/riscv.hpp ****         semOpen = 0x21,
 109:src/../h/riscv.hpp ****         semClose = 0x22,
 110:src/../h/riscv.hpp ****         semWait = 0x23,
 111:src/../h/riscv.hpp ****         semSignal = 0x24,
 112:src/../h/riscv.hpp ****         semTrywait = 0x26,
 113:src/../h/riscv.hpp ****         //------------------ za 20p
 114:src/../h/riscv.hpp **** 
 115:src/../h/riscv.hpp ****         semTimedwait = 0x25,
 116:src/../h/riscv.hpp ****         timeSleat = 0x31,
 117:src/../h/riscv.hpp ****         getC = 0x41,
 118:src/../h/riscv.hpp ****         putC = 0x42
 119:src/../h/riscv.hpp ****     };
 120:src/../h/riscv.hpp ****     static void sysCallWraper(...);
 121:src/../h/riscv.hpp **** 
 122:src/../h/riscv.hpp **** private:
 123:src/../h/riscv.hpp **** 
 124:src/../h/riscv.hpp ****     // supervisor trap handler
 125:src/../h/riscv.hpp ****     static void handleSupervisorTrap();
 126:src/../h/riscv.hpp **** 
 127:src/../h/riscv.hpp **** 
 128:src/../h/riscv.hpp **** 
 129:src/../h/riscv.hpp **** };
 130:src/../h/riscv.hpp **** 
 131:src/../h/riscv.hpp **** inline uint64 Riscv::r_scause()
 132:src/../h/riscv.hpp **** {
 133:src/../h/riscv.hpp ****     uint64 volatile scause;
 134:src/../h/riscv.hpp ****     __asm__ volatile ("csrr %[scause], scause" : [scause] "=r"(scause));
 135:src/../h/riscv.hpp ****     return scause;
 136:src/../h/riscv.hpp **** }
 137:src/../h/riscv.hpp **** 
 138:src/../h/riscv.hpp **** inline void Riscv::w_scause(uint64 scause)
 139:src/../h/riscv.hpp **** {
 140:src/../h/riscv.hpp ****     __asm__ volatile ("csrw scause, %[scause]" : : [scause] "r"(scause));
 141:src/../h/riscv.hpp **** }
 142:src/../h/riscv.hpp **** 
 143:src/../h/riscv.hpp **** inline uint64 Riscv::r_sepc()
 144:src/../h/riscv.hpp **** {
 145:src/../h/riscv.hpp ****     uint64 volatile sepc;
 146:src/../h/riscv.hpp ****     __asm__ volatile ("csrr %[sepc], sepc" : [sepc] "=r"(sepc));
 147:src/../h/riscv.hpp ****     return sepc;
 148:src/../h/riscv.hpp **** }
 149:src/../h/riscv.hpp **** 
 150:src/../h/riscv.hpp **** inline void Riscv::w_sepc(uint64 sepc)
 151:src/../h/riscv.hpp **** {
 152:src/../h/riscv.hpp ****     __asm__ volatile ("csrw sepc, %[sepc]" : : [sepc] "r"(sepc));
 153:src/../h/riscv.hpp **** }
 154:src/../h/riscv.hpp **** 
 155:src/../h/riscv.hpp **** inline uint64 Riscv::r_stvec()
 156:src/../h/riscv.hpp **** {
 157:src/../h/riscv.hpp ****     uint64 volatile stvec;
GAS LISTING /tmp/ccitCiad.s 			page 5


 158:src/../h/riscv.hpp ****     __asm__ volatile ("csrr %[stvec], stvec" : [stvec] "=r"(stvec));
 159:src/../h/riscv.hpp ****     return stvec;
 160:src/../h/riscv.hpp **** }
 161:src/../h/riscv.hpp **** 
 162:src/../h/riscv.hpp **** inline void Riscv::w_stvec(uint64 stvec)
 163:src/../h/riscv.hpp **** {
 164:src/../h/riscv.hpp ****     __asm__ volatile ("csrw stvec, %[stvec]" : : [stvec] "r"(stvec));
 165:src/../h/riscv.hpp **** }
 166:src/../h/riscv.hpp **** 
 167:src/../h/riscv.hpp **** inline uint64 Riscv::r_stval()
 168:src/../h/riscv.hpp **** {
 169:src/../h/riscv.hpp ****     uint64 volatile stval;
 170:src/../h/riscv.hpp ****     __asm__ volatile ("csrr %[stval], stval" : [stval] "=r"(stval));
 171:src/../h/riscv.hpp ****     return stval;
 172:src/../h/riscv.hpp **** }
 173:src/../h/riscv.hpp **** 
 174:src/../h/riscv.hpp **** inline void Riscv::w_stval(uint64 stval)
 175:src/../h/riscv.hpp **** {
 176:src/../h/riscv.hpp ****     __asm__ volatile ("csrw stval, %[stval]" : : [stval] "r"(stval));
 177:src/../h/riscv.hpp **** }
 178:src/../h/riscv.hpp **** 
 179:src/../h/riscv.hpp **** inline void Riscv::ms_sip(uint64 mask)
 180:src/../h/riscv.hpp **** {
 181:src/../h/riscv.hpp ****     __asm__ volatile ("csrs sip, %[mask]" : : [mask] "r"(mask));
 182:src/../h/riscv.hpp **** }
 183:src/../h/riscv.hpp **** 
 184:src/../h/riscv.hpp **** inline void Riscv::mc_sip(uint64 mask)
 185:src/../h/riscv.hpp **** {
 186:src/../h/riscv.hpp ****     __asm__ volatile ("csrc sip, %[mask]" : : [mask] "r"(mask));
 187:src/../h/riscv.hpp **** }
 188:src/../h/riscv.hpp **** 
 189:src/../h/riscv.hpp **** inline uint64 Riscv::r_sip()
 190:src/../h/riscv.hpp **** {
 191:src/../h/riscv.hpp ****     uint64 volatile sip;
 192:src/../h/riscv.hpp ****     __asm__ volatile ("csrr %[sip], sip" : [sip] "=r"(sip));
 193:src/../h/riscv.hpp ****     return sip;
 194:src/../h/riscv.hpp **** }
 195:src/../h/riscv.hpp **** 
 196:src/../h/riscv.hpp **** inline void Riscv::w_sip(uint64 sip)
 197:src/../h/riscv.hpp **** {
 198:src/../h/riscv.hpp ****     __asm__ volatile ("csrw sip, %[sip]" : : [sip] "r"(sip));
 199:src/../h/riscv.hpp **** }
 200:src/../h/riscv.hpp **** 
 201:src/../h/riscv.hpp **** inline void Riscv::ms_sstatus(uint64 mask)
 202:src/../h/riscv.hpp **** {
 203:src/../h/riscv.hpp ****     __asm__ volatile ("csrs sstatus, %[mask]" : : [mask] "r"(mask));
 204:src/../h/riscv.hpp **** }
 205:src/../h/riscv.hpp **** 
 206:src/../h/riscv.hpp **** inline void Riscv::mc_sstatus(uint64 mask)
 207:src/../h/riscv.hpp **** {
 208:src/../h/riscv.hpp ****     __asm__ volatile ("csrc sstatus, %[mask]" : : [mask] "r"(mask));
 209:src/../h/riscv.hpp **** }
 210:src/../h/riscv.hpp **** 
 211:src/../h/riscv.hpp **** inline uint64 Riscv::r_sstatus()
 212:src/../h/riscv.hpp **** {
 213:src/../h/riscv.hpp ****     uint64 volatile sstatus;
 214:src/../h/riscv.hpp ****     __asm__ volatile ("csrr %[sstatus], sstatus" : [sstatus] "=r"(sstatus));
GAS LISTING /tmp/ccitCiad.s 			page 6


 215:src/../h/riscv.hpp ****     return sstatus;
 216:src/../h/riscv.hpp **** }
 217:src/../h/riscv.hpp **** 
 218:src/../h/riscv.hpp **** inline void Riscv::w_sstatus(uint64 sstatus)
 219:src/../h/riscv.hpp **** {
 220:src/../h/riscv.hpp ****     __asm__ volatile ("csrw sstatus, %[sstatus]" : : [sstatus] "r"(sstatus));
 221:src/../h/riscv.hpp **** }
 222:src/../h/riscv.hpp **** // read register a0
 223:src/../h/riscv.hpp **** inline uint64 Riscv::r_a0() {
 224:src/../h/riscv.hpp ****     uint64 volatile a0;
  54              		.loc 2 224 5
 225:src/../h/riscv.hpp ****     __asm__ volatile("mv %0, a0" : "=r" (a0));
  55              		.loc 2 225 5
  56              		.loc 2 225 46 is_stmt 0
  57              	#APP
  58              	# 225 "src/../h/riscv.hpp" 1
 226              	    return a0;
  59              		mv a5, a0
  60              	# 0 "" 2
  61              	#NO_APP
  62 0040 2334F4FE 		sd	a5,-24(s0)
  63              		.loc 2 226 5 is_stmt 1
  64              		.loc 2 226 12 is_stmt 0
  65 0044 033584FE 		ld	a0,-24(s0)
  66              	.LVL6:
  67              	.LBE21:
  68              	.LBE20:
  18:src/syscall_c.cpp ****     return (void*)ret;
  69              		.loc 1 18 5 is_stmt 1
  19:src/syscall_c.cpp **** }
  70              		.loc 1 19 1 is_stmt 0
  71 0048 83308101 		ld	ra,24(sp)
  72              		.cfi_restore 1
  73 004c 03340101 		ld	s0,16(sp)
  74              		.cfi_restore 8
  75              		.cfi_def_cfa 2, 32
  76 0050 13010102 		addi	sp,sp,32
  77              		.cfi_def_cfa_offset 0
  78 0054 67800000 		jr	ra
  79              		.cfi_endproc
  80              	.LFE44:
  82              		.align	2
  83              		.globl	_Z8mem_freePv
  85              	_Z8mem_freePv:
  86              	.LFB45:
  20:src/syscall_c.cpp **** 
  21:src/syscall_c.cpp **** int mem_free(void *p){
  87              		.loc 1 21 22 is_stmt 1
  88              		.cfi_startproc
  89              	.LVL7:
  90 0058 130101FF 		addi	sp,sp,-16
  91              		.cfi_def_cfa_offset 16
  92 005c 23341100 		sd	ra,8(sp)
  93 0060 23308100 		sd	s0,0(sp)
  94              		.cfi_offset 1, -8
  95              		.cfi_offset 8, -16
  96 0064 13040101 		addi	s0,sp,16
GAS LISTING /tmp/ccitCiad.s 			page 7


  97              		.cfi_def_cfa 8, 0
  98 0068 93050500 		mv	a1,a0
  22:src/syscall_c.cpp ****     Riscv::sysCallWraper(Riscv::memFree, p);
  99              		.loc 1 22 5
 100              		.loc 1 22 25 is_stmt 0
 101 006c 13052000 		li	a0,2
 102              	.LVL8:
 103 0070 97000000 		call	_ZN5Riscv13sysCallWraperEz@plt
 103      E7800000 
 104              	.LVL9:
  23:src/syscall_c.cpp ****     uint64 ret;
 105              		.loc 1 23 5 is_stmt 1
  24:src/syscall_c.cpp ****     __asm__ volatile("mv %[ret], a0" : [ret] "=r" (ret));
 106              		.loc 1 24 5
 107              		.loc 1 24 57 is_stmt 0
 108              	#APP
 109              	# 24 "src/syscall_c.cpp" 1
  25              	    return (int) ret;
 110              		mv a0, a0
 111              	# 0 "" 2
 112              	.LVL10:
 113              		.loc 1 25 5 is_stmt 1
  26:src/syscall_c.cpp **** }
 114              		.loc 1 26 1 is_stmt 0
 115              	#NO_APP
 116 007c 1B050500 		sext.w	a0,a0
 117              	.LVL11:
 118 0080 83308100 		ld	ra,8(sp)
 119              		.cfi_restore 1
 120 0084 03340100 		ld	s0,0(sp)
 121              		.cfi_restore 8
 122              		.cfi_def_cfa 2, 16
 123 0088 13010101 		addi	sp,sp,16
 124              		.cfi_def_cfa_offset 0
 125 008c 67800000 		jr	ra
 126              		.cfi_endproc
 127              	.LFE45:
 129              		.align	2
 130              		.globl	_Z13thread_createPP7_threadPFvPvES2_
 132              	_Z13thread_createPP7_threadPFvPvES2_:
 133              	.LFB46:
  27:src/syscall_c.cpp **** 
  28:src/syscall_c.cpp **** int thread_create ( thread_t* handle, void(*body)(void*), void* arg) {  //0x11
 134              		.loc 1 28 70 is_stmt 1
 135              		.cfi_startproc
 136              	.LVL12:
 137 0090 130101FC 		addi	sp,sp,-64
 138              		.cfi_def_cfa_offset 64
 139 0094 233C1102 		sd	ra,56(sp)
 140 0098 23388102 		sd	s0,48(sp)
 141 009c 23349102 		sd	s1,40(sp)
 142 00a0 23302103 		sd	s2,32(sp)
 143 00a4 233C3101 		sd	s3,24(sp)
 144              		.cfi_offset 1, -8
 145              		.cfi_offset 8, -16
 146              		.cfi_offset 9, -24
 147              		.cfi_offset 18, -32
GAS LISTING /tmp/ccitCiad.s 			page 8


 148              		.cfi_offset 19, -40
 149 00a8 13040104 		addi	s0,sp,64
 150              		.cfi_def_cfa 8, 0
 151 00ac 93040500 		mv	s1,a0
 152 00b0 13890500 		mv	s2,a1
 153 00b4 93090600 		mv	s3,a2
  29:src/syscall_c.cpp ****     void* stack = mem_alloc( DEFAULT_STACK_SIZE);
 154              		.loc 1 29 5
 155              		.loc 1 29 28 is_stmt 0
 156 00b8 37150000 		li	a0,4096
 157              	.LVL13:
 158 00bc 97000000 		call	_Z9mem_allocm
 158      E7800000 
 159              	.LVL14:
  30:src/syscall_c.cpp ****     if(stack == nullptr) return -1;
 160              		.loc 1 30 5 is_stmt 1
 161 00c4 63060504 		beqz	a0,.L8
 162 00c8 13070500 		mv	a4,a0
  31:src/syscall_c.cpp ****     Riscv::sysCallWraper(Riscv::threadCreate, handle, body, arg, stack);
 163              		.loc 1 31 5
 164              		.loc 1 31 25 is_stmt 0
 165 00cc 93860900 		mv	a3,s3
 166 00d0 13060900 		mv	a2,s2
 167 00d4 93850400 		mv	a1,s1
 168 00d8 13051001 		li	a0,17
 169              	.LVL15:
 170 00dc 97000000 		call	_ZN5Riscv13sysCallWraperEz@plt
 170      E7800000 
 171              	.LVL16:
  32:src/syscall_c.cpp ****     uint64 ret = Riscv::r_a0();
 172              		.loc 1 32 5 is_stmt 1
 173              	.LBB22:
 174              	.LBB23:
 224:src/../h/riscv.hpp ****     __asm__ volatile("mv %0, a0" : "=r" (a0));
 175              		.loc 2 224 5
 225:src/../h/riscv.hpp ****     return a0;
 176              		.loc 2 225 5
 225:src/../h/riscv.hpp ****     return a0;
 177              		.loc 2 225 46 is_stmt 0
 178              	#APP
 179              	# 225 "src/../h/riscv.hpp" 1
 180              		mv a5, a0
 181              	# 0 "" 2
 182              	#NO_APP
 183 00e8 2334F4FC 		sd	a5,-56(s0)
 184              		.loc 2 226 5 is_stmt 1
 185              		.loc 2 226 12 is_stmt 0
 186 00ec 033584FC 		ld	a0,-56(s0)
 187              	.LVL17:
 188              	.LBE23:
 189              	.LBE22:
  33:src/syscall_c.cpp ****     return (int) ret;
 190              		.loc 1 33 5 is_stmt 1
 191              		.loc 1 33 18 is_stmt 0
 192 00f0 1B050500 		sext.w	a0,a0
 193              	.LVL18:
 194              	.L7:
GAS LISTING /tmp/ccitCiad.s 			page 9


  34:src/syscall_c.cpp **** }
 195              		.loc 1 34 1
 196 00f4 83308103 		ld	ra,56(sp)
 197              		.cfi_remember_state
 198              		.cfi_restore 1
 199 00f8 03340103 		ld	s0,48(sp)
 200              		.cfi_restore 8
 201              		.cfi_def_cfa 2, 64
 202 00fc 83348102 		ld	s1,40(sp)
 203              		.cfi_restore 9
 204              	.LVL19:
 205 0100 03390102 		ld	s2,32(sp)
 206              		.cfi_restore 18
 207              	.LVL20:
 208 0104 83398101 		ld	s3,24(sp)
 209              		.cfi_restore 19
 210              	.LVL21:
 211 0108 13010104 		addi	sp,sp,64
 212              		.cfi_def_cfa_offset 0
 213 010c 67800000 		jr	ra
 214              	.LVL22:
 215              	.L8:
 216              		.cfi_restore_state
  30:src/syscall_c.cpp ****     Riscv::sysCallWraper(Riscv::threadCreate, handle, body, arg, stack);
 217              		.loc 1 30 34
 218 0110 1305F0FF 		li	a0,-1
 219              	.LVL23:
 220 0114 6FF01FFE 		j	.L7
 221              		.cfi_endproc
 222              	.LFE46:
 224              		.align	2
 225              		.globl	_Z11thread_exitv
 227              	_Z11thread_exitv:
 228              	.LFB47:
  35:src/syscall_c.cpp **** 
  36:src/syscall_c.cpp **** int thread_exit (){  //0x12
 229              		.loc 1 36 19 is_stmt 1
 230              		.cfi_startproc
 231 0118 130101FE 		addi	sp,sp,-32
 232              		.cfi_def_cfa_offset 32
 233 011c 233C1100 		sd	ra,24(sp)
 234 0120 23388100 		sd	s0,16(sp)
 235              		.cfi_offset 1, -8
 236              		.cfi_offset 8, -16
 237 0124 13040102 		addi	s0,sp,32
 238              		.cfi_def_cfa 8, 0
  37:src/syscall_c.cpp ****     Riscv::sysCallWraper(Riscv::threadExit);
 239              		.loc 1 37 5
 240              		.loc 1 37 25 is_stmt 0
 241 0128 13052001 		li	a0,18
 242 012c 97000000 		call	_ZN5Riscv13sysCallWraperEz@plt
 242      E7800000 
 243              	.LVL24:
  38:src/syscall_c.cpp ****     uint64 ret = Riscv::r_a0();
 244              		.loc 1 38 5 is_stmt 1
 245              	.LBB24:
 246              	.LBB25:
GAS LISTING /tmp/ccitCiad.s 			page 10


 224:src/../h/riscv.hpp ****     __asm__ volatile("mv %0, a0" : "=r" (a0));
 247              		.loc 2 224 5
 225:src/../h/riscv.hpp ****     return a0;
 248              		.loc 2 225 5
 225:src/../h/riscv.hpp ****     return a0;
 249              		.loc 2 225 46 is_stmt 0
 250              	#APP
 251              	# 225 "src/../h/riscv.hpp" 1
 252              		mv a5, a0
 253              	# 0 "" 2
 254              	#NO_APP
 255 0138 2334F4FE 		sd	a5,-24(s0)
 256              		.loc 2 226 5 is_stmt 1
 257              		.loc 2 226 12 is_stmt 0
 258 013c 033584FE 		ld	a0,-24(s0)
 259              	.LVL25:
 260              	.LBE25:
 261              	.LBE24:
  39:src/syscall_c.cpp ****     return (int) ret;
 262              		.loc 1 39 5 is_stmt 1
  40:src/syscall_c.cpp **** }
 263              		.loc 1 40 1 is_stmt 0
 264 0140 1B050500 		sext.w	a0,a0
 265              	.LVL26:
 266 0144 83308101 		ld	ra,24(sp)
 267              		.cfi_restore 1
 268 0148 03340101 		ld	s0,16(sp)
 269              		.cfi_restore 8
 270              		.cfi_def_cfa 2, 32
 271 014c 13010102 		addi	sp,sp,32
 272              		.cfi_def_cfa_offset 0
 273 0150 67800000 		jr	ra
 274              		.cfi_endproc
 275              	.LFE47:
 277              		.align	2
 278              		.globl	_Z15thread_dispatchv
 280              	_Z15thread_dispatchv:
 281              	.LFB48:
  41:src/syscall_c.cpp **** 
  42:src/syscall_c.cpp **** void thread_dispatch (){  //0x13
 282              		.loc 1 42 24 is_stmt 1
 283              		.cfi_startproc
 284 0154 130101FF 		addi	sp,sp,-16
 285              		.cfi_def_cfa_offset 16
 286 0158 23341100 		sd	ra,8(sp)
 287 015c 23308100 		sd	s0,0(sp)
 288              		.cfi_offset 1, -8
 289              		.cfi_offset 8, -16
 290 0160 13040101 		addi	s0,sp,16
 291              		.cfi_def_cfa 8, 0
  43:src/syscall_c.cpp ****     Riscv::sysCallWraper(Riscv::threadDispatch);
 292              		.loc 1 43 5
 293              		.loc 1 43 25 is_stmt 0
 294 0164 13053001 		li	a0,19
 295 0168 97000000 		call	_ZN5Riscv13sysCallWraperEz@plt
 295      E7800000 
 296              	.LVL27:
GAS LISTING /tmp/ccitCiad.s 			page 11


  44:src/syscall_c.cpp **** }
 297              		.loc 1 44 1
 298 0170 83308100 		ld	ra,8(sp)
 299              		.cfi_restore 1
 300 0174 03340100 		ld	s0,0(sp)
 301              		.cfi_restore 8
 302              		.cfi_def_cfa 2, 16
 303 0178 13010101 		addi	sp,sp,16
 304              		.cfi_def_cfa_offset 0
 305 017c 67800000 		jr	ra
 306              		.cfi_endproc
 307              	.LFE48:
 309              		.align	2
 310              		.globl	_Z8sem_openPP4_semj
 312              	_Z8sem_openPP4_semj:
 313              	.LFB49:
  45:src/syscall_c.cpp **** 
  46:src/syscall_c.cpp **** int sem_open (sem_t* handle, unsigned init){//0x21
 314              		.loc 1 46 44 is_stmt 1
 315              		.cfi_startproc
 316              	.LVL28:
 317 0180 130101FE 		addi	sp,sp,-32
 318              		.cfi_def_cfa_offset 32
 319 0184 233C1100 		sd	ra,24(sp)
 320 0188 23388100 		sd	s0,16(sp)
 321              		.cfi_offset 1, -8
 322              		.cfi_offset 8, -16
 323 018c 13040102 		addi	s0,sp,32
 324              		.cfi_def_cfa 8, 0
 325 0190 13860500 		mv	a2,a1
  47:src/syscall_c.cpp ****     Riscv::sysCallWraper(Riscv::semOpen, handle, init);
 326              		.loc 1 47 5
 327              		.loc 1 47 25 is_stmt 0
 328 0194 93050500 		mv	a1,a0
 329              	.LVL29:
 330 0198 13051002 		li	a0,33
 331              	.LVL30:
 332 019c 97000000 		call	_ZN5Riscv13sysCallWraperEz@plt
 332      E7800000 
 333              	.LVL31:
  48:src/syscall_c.cpp ****     uint64 ret = Riscv::r_a0();
 334              		.loc 1 48 5 is_stmt 1
 335              	.LBB26:
 336              	.LBB27:
 224:src/../h/riscv.hpp ****     __asm__ volatile("mv %0, a0" : "=r" (a0));
 337              		.loc 2 224 5
 225:src/../h/riscv.hpp ****     return a0;
 338              		.loc 2 225 5
 225:src/../h/riscv.hpp ****     return a0;
 339              		.loc 2 225 46 is_stmt 0
 340              	#APP
 341              	# 225 "src/../h/riscv.hpp" 1
 342              		mv a5, a0
 343              	# 0 "" 2
 344              	#NO_APP
 345 01a8 2334F4FE 		sd	a5,-24(s0)
 346              		.loc 2 226 5 is_stmt 1
GAS LISTING /tmp/ccitCiad.s 			page 12


 347              		.loc 2 226 12 is_stmt 0
 348 01ac 033584FE 		ld	a0,-24(s0)
 349              	.LVL32:
 350              	.LBE27:
 351              	.LBE26:
  49:src/syscall_c.cpp ****     return (int) ret;
 352              		.loc 1 49 5 is_stmt 1
  50:src/syscall_c.cpp **** }
 353              		.loc 1 50 1 is_stmt 0
 354 01b0 1B050500 		sext.w	a0,a0
 355              	.LVL33:
 356 01b4 83308101 		ld	ra,24(sp)
 357              		.cfi_restore 1
 358 01b8 03340101 		ld	s0,16(sp)
 359              		.cfi_restore 8
 360              		.cfi_def_cfa 2, 32
 361 01bc 13010102 		addi	sp,sp,32
 362              		.cfi_def_cfa_offset 0
 363 01c0 67800000 		jr	ra
 364              		.cfi_endproc
 365              	.LFE49:
 367              		.align	2
 368              		.globl	_Z9sem_closeP4_sem
 370              	_Z9sem_closeP4_sem:
 371              	.LFB50:
  51:src/syscall_c.cpp **** int sem_close (sem_t handle){ //0x22
 372              		.loc 1 51 29 is_stmt 1
 373              		.cfi_startproc
 374              	.LVL34:
 375 01c4 130101FE 		addi	sp,sp,-32
 376              		.cfi_def_cfa_offset 32
 377 01c8 233C1100 		sd	ra,24(sp)
 378 01cc 23388100 		sd	s0,16(sp)
 379              		.cfi_offset 1, -8
 380              		.cfi_offset 8, -16
 381 01d0 13040102 		addi	s0,sp,32
 382              		.cfi_def_cfa 8, 0
 383 01d4 93050500 		mv	a1,a0
  52:src/syscall_c.cpp ****     Riscv::sysCallWraper(Riscv::semClose, handle);
 384              		.loc 1 52 5
 385              		.loc 1 52 25 is_stmt 0
 386 01d8 13052002 		li	a0,34
 387              	.LVL35:
 388 01dc 97000000 		call	_ZN5Riscv13sysCallWraperEz@plt
 388      E7800000 
 389              	.LVL36:
  53:src/syscall_c.cpp ****     uint64 ret = Riscv::r_a0();
 390              		.loc 1 53 5 is_stmt 1
 391              	.LBB28:
 392              	.LBB29:
 224:src/../h/riscv.hpp ****     __asm__ volatile("mv %0, a0" : "=r" (a0));
 393              		.loc 2 224 5
 225:src/../h/riscv.hpp ****     return a0;
 394              		.loc 2 225 5
 225:src/../h/riscv.hpp ****     return a0;
 395              		.loc 2 225 46 is_stmt 0
 396              	#APP
GAS LISTING /tmp/ccitCiad.s 			page 13


 397              	# 225 "src/../h/riscv.hpp" 1
 398              		mv a5, a0
 399              	# 0 "" 2
 400              	#NO_APP
 401 01e8 2334F4FE 		sd	a5,-24(s0)
 402              		.loc 2 226 5 is_stmt 1
 403              		.loc 2 226 12 is_stmt 0
 404 01ec 033584FE 		ld	a0,-24(s0)
 405              	.LVL37:
 406              	.LBE29:
 407              	.LBE28:
  54:src/syscall_c.cpp ****     return (int) ret;
 408              		.loc 1 54 5 is_stmt 1
  55:src/syscall_c.cpp **** }
 409              		.loc 1 55 1 is_stmt 0
 410 01f0 1B050500 		sext.w	a0,a0
 411              	.LVL38:
 412 01f4 83308101 		ld	ra,24(sp)
 413              		.cfi_restore 1
 414 01f8 03340101 		ld	s0,16(sp)
 415              		.cfi_restore 8
 416              		.cfi_def_cfa 2, 32
 417 01fc 13010102 		addi	sp,sp,32
 418              		.cfi_def_cfa_offset 0
 419 0200 67800000 		jr	ra
 420              		.cfi_endproc
 421              	.LFE50:
 423              		.align	2
 424              		.globl	_Z8sem_waitP4_sem
 426              	_Z8sem_waitP4_sem:
 427              	.LFB51:
  56:src/syscall_c.cpp **** int sem_wait (sem_t id){ //0x23
 428              		.loc 1 56 24 is_stmt 1
 429              		.cfi_startproc
 430              	.LVL39:
 431 0204 130101FE 		addi	sp,sp,-32
 432              		.cfi_def_cfa_offset 32
 433 0208 233C1100 		sd	ra,24(sp)
 434 020c 23388100 		sd	s0,16(sp)
 435              		.cfi_offset 1, -8
 436              		.cfi_offset 8, -16
 437 0210 13040102 		addi	s0,sp,32
 438              		.cfi_def_cfa 8, 0
 439 0214 93050500 		mv	a1,a0
  57:src/syscall_c.cpp ****     Riscv::sysCallWraper(Riscv::semWait, id);
 440              		.loc 1 57 5
 441              		.loc 1 57 25 is_stmt 0
 442 0218 13053002 		li	a0,35
 443              	.LVL40:
 444 021c 97000000 		call	_ZN5Riscv13sysCallWraperEz@plt
 444      E7800000 
 445              	.LVL41:
  58:src/syscall_c.cpp ****     uint64 ret = Riscv::r_a0();
 446              		.loc 1 58 5 is_stmt 1
 447              	.LBB30:
 448              	.LBB31:
 224:src/../h/riscv.hpp ****     __asm__ volatile("mv %0, a0" : "=r" (a0));
GAS LISTING /tmp/ccitCiad.s 			page 14


 449              		.loc 2 224 5
 225:src/../h/riscv.hpp ****     return a0;
 450              		.loc 2 225 5
 225:src/../h/riscv.hpp ****     return a0;
 451              		.loc 2 225 46 is_stmt 0
 452              	#APP
 453              	# 225 "src/../h/riscv.hpp" 1
 454              		mv a5, a0
 455              	# 0 "" 2
 456              	#NO_APP
 457 0228 2334F4FE 		sd	a5,-24(s0)
 458              		.loc 2 226 5 is_stmt 1
 459              		.loc 2 226 12 is_stmt 0
 460 022c 033584FE 		ld	a0,-24(s0)
 461              	.LVL42:
 462              	.LBE31:
 463              	.LBE30:
  59:src/syscall_c.cpp ****     return (int) ret;
 464              		.loc 1 59 5 is_stmt 1
  60:src/syscall_c.cpp **** }
 465              		.loc 1 60 1 is_stmt 0
 466 0230 1B050500 		sext.w	a0,a0
 467              	.LVL43:
 468 0234 83308101 		ld	ra,24(sp)
 469              		.cfi_restore 1
 470 0238 03340101 		ld	s0,16(sp)
 471              		.cfi_restore 8
 472              		.cfi_def_cfa 2, 32
 473 023c 13010102 		addi	sp,sp,32
 474              		.cfi_def_cfa_offset 0
 475 0240 67800000 		jr	ra
 476              		.cfi_endproc
 477              	.LFE51:
 479              		.align	2
 480              		.globl	_Z10sem_signalP4_sem
 482              	_Z10sem_signalP4_sem:
 483              	.LFB52:
  61:src/syscall_c.cpp **** int sem_signal (sem_t id){  //0x24
 484              		.loc 1 61 26 is_stmt 1
 485              		.cfi_startproc
 486              	.LVL44:
 487 0244 130101FE 		addi	sp,sp,-32
 488              		.cfi_def_cfa_offset 32
 489 0248 233C1100 		sd	ra,24(sp)
 490 024c 23388100 		sd	s0,16(sp)
 491              		.cfi_offset 1, -8
 492              		.cfi_offset 8, -16
 493 0250 13040102 		addi	s0,sp,32
 494              		.cfi_def_cfa 8, 0
 495 0254 93050500 		mv	a1,a0
  62:src/syscall_c.cpp ****     Riscv::sysCallWraper(Riscv::semSignal, id);
 496              		.loc 1 62 5
 497              		.loc 1 62 25 is_stmt 0
 498 0258 13054002 		li	a0,36
 499              	.LVL45:
 500 025c 97000000 		call	_ZN5Riscv13sysCallWraperEz@plt
 500      E7800000 
GAS LISTING /tmp/ccitCiad.s 			page 15


 501              	.LVL46:
  63:src/syscall_c.cpp ****     uint64 ret = Riscv::r_a0();
 502              		.loc 1 63 5 is_stmt 1
 503              	.LBB32:
 504              	.LBB33:
 224:src/../h/riscv.hpp ****     __asm__ volatile("mv %0, a0" : "=r" (a0));
 505              		.loc 2 224 5
 225:src/../h/riscv.hpp ****     return a0;
 506              		.loc 2 225 5
 225:src/../h/riscv.hpp ****     return a0;
 507              		.loc 2 225 46 is_stmt 0
 508              	#APP
 509              	# 225 "src/../h/riscv.hpp" 1
 510              		mv a5, a0
 511              	# 0 "" 2
 512              	#NO_APP
 513 0268 2334F4FE 		sd	a5,-24(s0)
 514              		.loc 2 226 5 is_stmt 1
 515              		.loc 2 226 12 is_stmt 0
 516 026c 033584FE 		ld	a0,-24(s0)
 517              	.LVL47:
 518              	.LBE33:
 519              	.LBE32:
  64:src/syscall_c.cpp ****     return (int) ret;
 520              		.loc 1 64 5 is_stmt 1
  65:src/syscall_c.cpp **** }
 521              		.loc 1 65 1 is_stmt 0
 522 0270 1B050500 		sext.w	a0,a0
 523              	.LVL48:
 524 0274 83308101 		ld	ra,24(sp)
 525              		.cfi_restore 1
 526 0278 03340101 		ld	s0,16(sp)
 527              		.cfi_restore 8
 528              		.cfi_def_cfa 2, 32
 529 027c 13010102 		addi	sp,sp,32
 530              		.cfi_def_cfa_offset 0
 531 0280 67800000 		jr	ra
 532              		.cfi_endproc
 533              	.LFE52:
 535              		.align	2
 536              		.globl	_Z13sem_timedwaitP4_semm
 538              	_Z13sem_timedwaitP4_semm:
 539              	.LFB53:
  66:src/syscall_c.cpp **** int sem_timedwait(sem_t id,time_t timeout){return 0;} //0x25      //////////////////
 540              		.loc 1 66 43 is_stmt 1
 541              		.cfi_startproc
 542              	.LVL49:
 543 0284 130101FF 		addi	sp,sp,-16
 544              		.cfi_def_cfa_offset 16
 545 0288 23348100 		sd	s0,8(sp)
 546              		.cfi_offset 8, -8
 547 028c 13040101 		addi	s0,sp,16
 548              		.cfi_def_cfa 8, 0
 549              		.loc 1 66 44
 550              		.loc 1 66 53 is_stmt 0
 551 0290 13050000 		li	a0,0
 552              	.LVL50:
GAS LISTING /tmp/ccitCiad.s 			page 16


 553 0294 03348100 		ld	s0,8(sp)
 554              		.cfi_restore 8
 555              		.cfi_def_cfa 2, 16
 556 0298 13010101 		addi	sp,sp,16
 557              		.cfi_def_cfa_offset 0
 558 029c 67800000 		jr	ra
 559              		.cfi_endproc
 560              	.LFE53:
 562              		.align	2
 563              		.globl	_Z11sem_trywaitP4_sem
 565              	_Z11sem_trywaitP4_sem:
 566              	.LFB54:
  67:src/syscall_c.cpp **** 
  68:src/syscall_c.cpp **** int sem_trywait(sem_t id){ //0x26
 567              		.loc 1 68 26 is_stmt 1
 568              		.cfi_startproc
 569              	.LVL51:
 570 02a0 130101FE 		addi	sp,sp,-32
 571              		.cfi_def_cfa_offset 32
 572 02a4 233C1100 		sd	ra,24(sp)
 573 02a8 23388100 		sd	s0,16(sp)
 574              		.cfi_offset 1, -8
 575              		.cfi_offset 8, -16
 576 02ac 13040102 		addi	s0,sp,32
 577              		.cfi_def_cfa 8, 0
 578 02b0 93050500 		mv	a1,a0
  69:src/syscall_c.cpp ****     Riscv::sysCallWraper(Riscv::semTrywait, id);
 579              		.loc 1 69 5
 580              		.loc 1 69 25 is_stmt 0
 581 02b4 13056002 		li	a0,38
 582              	.LVL52:
 583 02b8 97000000 		call	_ZN5Riscv13sysCallWraperEz@plt
 583      E7800000 
 584              	.LVL53:
  70:src/syscall_c.cpp ****     uint64 ret = Riscv::r_a0();
 585              		.loc 1 70 5 is_stmt 1
 586              	.LBB34:
 587              	.LBB35:
 224:src/../h/riscv.hpp ****     __asm__ volatile("mv %0, a0" : "=r" (a0));
 588              		.loc 2 224 5
 225:src/../h/riscv.hpp ****     return a0;
 589              		.loc 2 225 5
 225:src/../h/riscv.hpp ****     return a0;
 590              		.loc 2 225 46 is_stmt 0
 591              	#APP
 592              	# 225 "src/../h/riscv.hpp" 1
 593              		mv a5, a0
 594              	# 0 "" 2
 595              	#NO_APP
 596 02c4 2334F4FE 		sd	a5,-24(s0)
 597              		.loc 2 226 5 is_stmt 1
 598              		.loc 2 226 12 is_stmt 0
 599 02c8 033584FE 		ld	a0,-24(s0)
 600              	.LVL54:
 601              	.LBE35:
 602              	.LBE34:
  71:src/syscall_c.cpp ****     return (int) ret;
GAS LISTING /tmp/ccitCiad.s 			page 17


 603              		.loc 1 71 5 is_stmt 1
  72:src/syscall_c.cpp **** }
 604              		.loc 1 72 1 is_stmt 0
 605 02cc 1B050500 		sext.w	a0,a0
 606              	.LVL55:
 607 02d0 83308101 		ld	ra,24(sp)
 608              		.cfi_restore 1
 609 02d4 03340101 		ld	s0,16(sp)
 610              		.cfi_restore 8
 611              		.cfi_def_cfa 2, 32
 612 02d8 13010102 		addi	sp,sp,32
 613              		.cfi_def_cfa_offset 0
 614 02dc 67800000 		jr	ra
 615              		.cfi_endproc
 616              	.LFE54:
 618              		.align	2
 619              		.globl	_Z10time_sleepm
 621              	_Z10time_sleepm:
 622              	.LFB55:
  73:src/syscall_c.cpp **** typedef unsigned long time_t;
  74:src/syscall_c.cpp **** int time_sleep (time_t){ return 0;}  //0x31                      //////////////////
 623              		.loc 1 74 24 is_stmt 1
 624              		.cfi_startproc
 625 02e0 130101FF 		addi	sp,sp,-16
 626              		.cfi_def_cfa_offset 16
 627 02e4 23348100 		sd	s0,8(sp)
 628              		.cfi_offset 8, -8
 629 02e8 13040101 		addi	s0,sp,16
 630              		.cfi_def_cfa 8, 0
 631              		.loc 1 74 26
 632              		.loc 1 74 35 is_stmt 0
 633 02ec 13050000 		li	a0,0
 634 02f0 03348100 		ld	s0,8(sp)
 635              		.cfi_restore 8
 636              		.cfi_def_cfa 2, 16
 637 02f4 13010101 		addi	sp,sp,16
 638              		.cfi_def_cfa_offset 0
 639 02f8 67800000 		jr	ra
 640              		.cfi_endproc
 641              	.LFE55:
 643              		.align	2
 644              		.globl	_Z4getcv
 646              	_Z4getcv:
 647              	.LFB56:
  75:src/syscall_c.cpp **** 
  76:src/syscall_c.cpp **** char getc() {  //0x41                                           //////////////////
 648              		.loc 1 76 13 is_stmt 1
 649              		.cfi_startproc
 650 02fc 130101FE 		addi	sp,sp,-32
 651              		.cfi_def_cfa_offset 32
 652 0300 233C1100 		sd	ra,24(sp)
 653 0304 23388100 		sd	s0,16(sp)
 654              		.cfi_offset 1, -8
 655              		.cfi_offset 8, -16
 656 0308 13040102 		addi	s0,sp,32
 657              		.cfi_def_cfa 8, 0
  77:src/syscall_c.cpp ****     Riscv::sysCallWraper(Riscv::getC);
GAS LISTING /tmp/ccitCiad.s 			page 18


 658              		.loc 1 77 5
 659              		.loc 1 77 25 is_stmt 0
 660 030c 13051004 		li	a0,65
 661 0310 97000000 		call	_ZN5Riscv13sysCallWraperEz@plt
 661      E7800000 
 662              	.LVL56:
  78:src/syscall_c.cpp ****     uint64 ret = Riscv::r_a0();
 663              		.loc 1 78 5 is_stmt 1
 664              	.LBB36:
 665              	.LBB37:
 224:src/../h/riscv.hpp ****     __asm__ volatile("mv %0, a0" : "=r" (a0));
 666              		.loc 2 224 5
 225:src/../h/riscv.hpp ****     return a0;
 667              		.loc 2 225 5
 225:src/../h/riscv.hpp ****     return a0;
 668              		.loc 2 225 46 is_stmt 0
 669              	#APP
 670              	# 225 "src/../h/riscv.hpp" 1
 671              		mv a5, a0
 672              	# 0 "" 2
 673              	#NO_APP
 674 031c 2334F4FE 		sd	a5,-24(s0)
 675              		.loc 2 226 5 is_stmt 1
 676              		.loc 2 226 12 is_stmt 0
 677 0320 033584FE 		ld	a0,-24(s0)
 678              	.LVL57:
 679              	.LBE37:
 680              	.LBE36:
  79:src/syscall_c.cpp ****     return (char) ret;
 681              		.loc 1 79 5 is_stmt 1
  80:src/syscall_c.cpp **** }
 682              		.loc 1 80 1 is_stmt 0
 683 0324 1375F50F 		andi	a0,a0,0xff
 684              	.LVL58:
 685 0328 83308101 		ld	ra,24(sp)
 686              		.cfi_restore 1
 687 032c 03340101 		ld	s0,16(sp)
 688              		.cfi_restore 8
 689              		.cfi_def_cfa 2, 32
 690 0330 13010102 		addi	sp,sp,32
 691              		.cfi_def_cfa_offset 0
 692 0334 67800000 		jr	ra
 693              		.cfi_endproc
 694              	.LFE56:
 696              		.align	2
 697              		.globl	_Z4putcc
 699              	_Z4putcc:
 700              	.LFB57:
  81:src/syscall_c.cpp **** 
  82:src/syscall_c.cpp **** void putc(char c) {  //0x42                                     //////////////////
 701              		.loc 1 82 19 is_stmt 1
 702              		.cfi_startproc
 703              	.LVL59:
 704 0338 130101FF 		addi	sp,sp,-16
 705              		.cfi_def_cfa_offset 16
 706 033c 23341100 		sd	ra,8(sp)
 707 0340 23308100 		sd	s0,0(sp)
GAS LISTING /tmp/ccitCiad.s 			page 19


 708              		.cfi_offset 1, -8
 709              		.cfi_offset 8, -16
 710 0344 13040101 		addi	s0,sp,16
 711              		.cfi_def_cfa 8, 0
 712 0348 93050500 		mv	a1,a0
  83:src/syscall_c.cpp ****     Riscv::sysCallWraper(Riscv::putC, c);
 713              		.loc 1 83 5
 714              		.loc 1 83 25 is_stmt 0
 715 034c 13052004 		li	a0,66
 716              	.LVL60:
 717 0350 97000000 		call	_ZN5Riscv13sysCallWraperEz@plt
 717      E7800000 
 718              	.LVL61:
  84:src/syscall_c.cpp **** }
 719              		.loc 1 84 1
 720 0358 83308100 		ld	ra,8(sp)
 721              		.cfi_restore 1
 722 035c 03340100 		ld	s0,0(sp)
 723              		.cfi_restore 8
 724              		.cfi_def_cfa 2, 16
 725 0360 13010101 		addi	sp,sp,16
 726              		.cfi_def_cfa_offset 0
 727 0364 67800000 		jr	ra
 728              		.cfi_endproc
 729              	.LFE57:
 731              	.Letext0:
 732              		.file 3 "src/../h/../lib/hw.h"
 733              		.file 4 "src/../h/syscall_c.hpp"
GAS LISTING /tmp/ccitCiad.s 			page 20


DEFINED SYMBOLS
                            *ABS*:0000000000000000 syscall_c.cpp
     /tmp/ccitCiad.s:9      .text:0000000000000000 _Z9mem_allocm
     /tmp/ccitCiad.s:13     .text:0000000000000000 .L0 
     /tmp/ccitCiad.s:15     .text:0000000000000000 .L0 
     /tmp/ccitCiad.s:16     .text:0000000000000004 .L0 
     /tmp/ccitCiad.s:19     .text:000000000000000c .L0 
     /tmp/ccitCiad.s:20     .text:000000000000000c .L0 
     /tmp/ccitCiad.s:22     .text:0000000000000010 .L0 
     /tmp/ccitCiad.s:24     .text:0000000000000010 .L0 
     /tmp/ccitCiad.s:25     .text:0000000000000010 .L0 
     /tmp/ccitCiad.s:28     .text:000000000000001c .L0 
     /tmp/ccitCiad.s:31     .text:0000000000000020 .L0 
     /tmp/ccitCiad.s:32     .text:0000000000000020 .L0 
     /tmp/ccitCiad.s:35     .text:0000000000000024 .L0 
     /tmp/ccitCiad.s:36     .text:0000000000000024 .L0 
     /tmp/ccitCiad.s:39     .text:0000000000000028 .L0 
     /tmp/ccitCiad.s:41     .text:000000000000002c .L0 
     /tmp/ccitCiad.s:42     .text:000000000000002c .L0 
     /tmp/ccitCiad.s:46     .text:0000000000000030 .L0 
     /tmp/ccitCiad.s:47     .text:0000000000000030 .L0 
     /tmp/ccitCiad.s:54     .text:000000000000003c .L0 
     /tmp/ccitCiad.s:55     .text:000000000000003c .L0 
     /tmp/ccitCiad.s:56     .text:000000000000003c .L0 
  src/../h/riscv.hpp:225    .text:000000000000003c .L0 
     /tmp/ccitCiad.s:64     .text:0000000000000044 .L0 
     /tmp/ccitCiad.s:65     .text:0000000000000044 .L0 
     /tmp/ccitCiad.s:70     .text:0000000000000048 .L0 
     /tmp/ccitCiad.s:71     .text:0000000000000048 .L0 
     /tmp/ccitCiad.s:72     .text:000000000000004c .L0 
     /tmp/ccitCiad.s:74     .text:0000000000000050 .L0 
     /tmp/ccitCiad.s:75     .text:0000000000000050 .L0 
     /tmp/ccitCiad.s:77     .text:0000000000000054 .L0 
     /tmp/ccitCiad.s:79     .text:0000000000000058 .L0 
     /tmp/ccitCiad.s:85     .text:0000000000000058 _Z8mem_freePv
     /tmp/ccitCiad.s:88     .text:0000000000000058 .L0 
     /tmp/ccitCiad.s:90     .text:0000000000000058 .L0 
     /tmp/ccitCiad.s:91     .text:000000000000005c .L0 
     /tmp/ccitCiad.s:94     .text:0000000000000064 .L0 
     /tmp/ccitCiad.s:95     .text:0000000000000064 .L0 
     /tmp/ccitCiad.s:97     .text:0000000000000068 .L0 
     /tmp/ccitCiad.s:100    .text:000000000000006c .L0 
     /tmp/ccitCiad.s:101    .text:000000000000006c .L0 
     /tmp/ccitCiad.s:106    .text:0000000000000078 .L0 
     /tmp/ccitCiad.s:107    .text:0000000000000078 .L0 
   src/syscall_c.cpp:24     .text:0000000000000078 .L0 
     /tmp/ccitCiad.s:114    .text:000000000000007c .L0 
     /tmp/ccitCiad.s:116    .text:000000000000007c .L0 
     /tmp/ccitCiad.s:119    .text:0000000000000084 .L0 
     /tmp/ccitCiad.s:121    .text:0000000000000088 .L0 
     /tmp/ccitCiad.s:122    .text:0000000000000088 .L0 
     /tmp/ccitCiad.s:124    .text:000000000000008c .L0 
     /tmp/ccitCiad.s:126    .text:0000000000000090 .L0 
     /tmp/ccitCiad.s:132    .text:0000000000000090 _Z13thread_createPP7_threadPFvPvES2_
     /tmp/ccitCiad.s:135    .text:0000000000000090 .L0 
     /tmp/ccitCiad.s:137    .text:0000000000000090 .L0 
     /tmp/ccitCiad.s:138    .text:0000000000000094 .L0 
GAS LISTING /tmp/ccitCiad.s 			page 21


     /tmp/ccitCiad.s:144    .text:00000000000000a8 .L0 
     /tmp/ccitCiad.s:145    .text:00000000000000a8 .L0 
     /tmp/ccitCiad.s:146    .text:00000000000000a8 .L0 
     /tmp/ccitCiad.s:147    .text:00000000000000a8 .L0 
     /tmp/ccitCiad.s:148    .text:00000000000000a8 .L0 
     /tmp/ccitCiad.s:150    .text:00000000000000ac .L0 
     /tmp/ccitCiad.s:155    .text:00000000000000b8 .L0 
     /tmp/ccitCiad.s:156    .text:00000000000000b8 .L0 
     /tmp/ccitCiad.s:161    .text:00000000000000c4 .L0 
     /tmp/ccitCiad.s:164    .text:00000000000000cc .L0 
     /tmp/ccitCiad.s:165    .text:00000000000000cc .L0 
     /tmp/ccitCiad.s:175    .text:00000000000000e4 .L0 
     /tmp/ccitCiad.s:176    .text:00000000000000e4 .L0 
     /tmp/ccitCiad.s:177    .text:00000000000000e4 .L0 
  src/../h/riscv.hpp:225    .text:00000000000000e4 .L0 
     /tmp/ccitCiad.s:185    .text:00000000000000ec .L0 
     /tmp/ccitCiad.s:186    .text:00000000000000ec .L0 
     /tmp/ccitCiad.s:191    .text:00000000000000f0 .L0 
     /tmp/ccitCiad.s:192    .text:00000000000000f0 .L0 
     /tmp/ccitCiad.s:196    .text:00000000000000f4 .L0 
     /tmp/ccitCiad.s:197    .text:00000000000000f8 .L0 
     /tmp/ccitCiad.s:198    .text:00000000000000f8 .L0 
     /tmp/ccitCiad.s:200    .text:00000000000000fc .L0 
     /tmp/ccitCiad.s:201    .text:00000000000000fc .L0 
     /tmp/ccitCiad.s:203    .text:0000000000000100 .L0 
     /tmp/ccitCiad.s:206    .text:0000000000000104 .L0 
     /tmp/ccitCiad.s:209    .text:0000000000000108 .L0 
     /tmp/ccitCiad.s:212    .text:000000000000010c .L0 
     /tmp/ccitCiad.s:216    .text:0000000000000110 .L0 
     /tmp/ccitCiad.s:218    .text:0000000000000110 .L0 
     /tmp/ccitCiad.s:221    .text:0000000000000118 .L0 
     /tmp/ccitCiad.s:227    .text:0000000000000118 _Z11thread_exitv
     /tmp/ccitCiad.s:230    .text:0000000000000118 .L0 
     /tmp/ccitCiad.s:231    .text:0000000000000118 .L0 
     /tmp/ccitCiad.s:232    .text:000000000000011c .L0 
     /tmp/ccitCiad.s:235    .text:0000000000000124 .L0 
     /tmp/ccitCiad.s:236    .text:0000000000000124 .L0 
     /tmp/ccitCiad.s:238    .text:0000000000000128 .L0 
     /tmp/ccitCiad.s:240    .text:0000000000000128 .L0 
     /tmp/ccitCiad.s:241    .text:0000000000000128 .L0 
     /tmp/ccitCiad.s:247    .text:0000000000000134 .L0 
     /tmp/ccitCiad.s:248    .text:0000000000000134 .L0 
     /tmp/ccitCiad.s:249    .text:0000000000000134 .L0 
  src/../h/riscv.hpp:225    .text:0000000000000134 .L0 
     /tmp/ccitCiad.s:257    .text:000000000000013c .L0 
     /tmp/ccitCiad.s:258    .text:000000000000013c .L0 
     /tmp/ccitCiad.s:263    .text:0000000000000140 .L0 
     /tmp/ccitCiad.s:264    .text:0000000000000140 .L0 
     /tmp/ccitCiad.s:267    .text:0000000000000148 .L0 
     /tmp/ccitCiad.s:269    .text:000000000000014c .L0 
     /tmp/ccitCiad.s:270    .text:000000000000014c .L0 
     /tmp/ccitCiad.s:272    .text:0000000000000150 .L0 
     /tmp/ccitCiad.s:274    .text:0000000000000154 .L0 
     /tmp/ccitCiad.s:280    .text:0000000000000154 _Z15thread_dispatchv
     /tmp/ccitCiad.s:283    .text:0000000000000154 .L0 
     /tmp/ccitCiad.s:284    .text:0000000000000154 .L0 
     /tmp/ccitCiad.s:285    .text:0000000000000158 .L0 
GAS LISTING /tmp/ccitCiad.s 			page 22


     /tmp/ccitCiad.s:288    .text:0000000000000160 .L0 
     /tmp/ccitCiad.s:289    .text:0000000000000160 .L0 
     /tmp/ccitCiad.s:291    .text:0000000000000164 .L0 
     /tmp/ccitCiad.s:293    .text:0000000000000164 .L0 
     /tmp/ccitCiad.s:294    .text:0000000000000164 .L0 
     /tmp/ccitCiad.s:298    .text:0000000000000170 .L0 
     /tmp/ccitCiad.s:299    .text:0000000000000174 .L0 
     /tmp/ccitCiad.s:301    .text:0000000000000178 .L0 
     /tmp/ccitCiad.s:302    .text:0000000000000178 .L0 
     /tmp/ccitCiad.s:304    .text:000000000000017c .L0 
     /tmp/ccitCiad.s:306    .text:0000000000000180 .L0 
     /tmp/ccitCiad.s:312    .text:0000000000000180 _Z8sem_openPP4_semj
     /tmp/ccitCiad.s:315    .text:0000000000000180 .L0 
     /tmp/ccitCiad.s:317    .text:0000000000000180 .L0 
     /tmp/ccitCiad.s:318    .text:0000000000000184 .L0 
     /tmp/ccitCiad.s:321    .text:000000000000018c .L0 
     /tmp/ccitCiad.s:322    .text:000000000000018c .L0 
     /tmp/ccitCiad.s:324    .text:0000000000000190 .L0 
     /tmp/ccitCiad.s:327    .text:0000000000000194 .L0 
     /tmp/ccitCiad.s:328    .text:0000000000000194 .L0 
     /tmp/ccitCiad.s:337    .text:00000000000001a4 .L0 
     /tmp/ccitCiad.s:338    .text:00000000000001a4 .L0 
     /tmp/ccitCiad.s:339    .text:00000000000001a4 .L0 
  src/../h/riscv.hpp:225    .text:00000000000001a4 .L0 
     /tmp/ccitCiad.s:347    .text:00000000000001ac .L0 
     /tmp/ccitCiad.s:348    .text:00000000000001ac .L0 
     /tmp/ccitCiad.s:353    .text:00000000000001b0 .L0 
     /tmp/ccitCiad.s:354    .text:00000000000001b0 .L0 
     /tmp/ccitCiad.s:357    .text:00000000000001b8 .L0 
     /tmp/ccitCiad.s:359    .text:00000000000001bc .L0 
     /tmp/ccitCiad.s:360    .text:00000000000001bc .L0 
     /tmp/ccitCiad.s:362    .text:00000000000001c0 .L0 
     /tmp/ccitCiad.s:364    .text:00000000000001c4 .L0 
     /tmp/ccitCiad.s:370    .text:00000000000001c4 _Z9sem_closeP4_sem
     /tmp/ccitCiad.s:373    .text:00000000000001c4 .L0 
     /tmp/ccitCiad.s:375    .text:00000000000001c4 .L0 
     /tmp/ccitCiad.s:376    .text:00000000000001c8 .L0 
     /tmp/ccitCiad.s:379    .text:00000000000001d0 .L0 
     /tmp/ccitCiad.s:380    .text:00000000000001d0 .L0 
     /tmp/ccitCiad.s:382    .text:00000000000001d4 .L0 
     /tmp/ccitCiad.s:385    .text:00000000000001d8 .L0 
     /tmp/ccitCiad.s:386    .text:00000000000001d8 .L0 
     /tmp/ccitCiad.s:393    .text:00000000000001e4 .L0 
     /tmp/ccitCiad.s:394    .text:00000000000001e4 .L0 
     /tmp/ccitCiad.s:395    .text:00000000000001e4 .L0 
  src/../h/riscv.hpp:225    .text:00000000000001e4 .L0 
     /tmp/ccitCiad.s:403    .text:00000000000001ec .L0 
     /tmp/ccitCiad.s:404    .text:00000000000001ec .L0 
     /tmp/ccitCiad.s:409    .text:00000000000001f0 .L0 
     /tmp/ccitCiad.s:410    .text:00000000000001f0 .L0 
     /tmp/ccitCiad.s:413    .text:00000000000001f8 .L0 
     /tmp/ccitCiad.s:415    .text:00000000000001fc .L0 
     /tmp/ccitCiad.s:416    .text:00000000000001fc .L0 
     /tmp/ccitCiad.s:418    .text:0000000000000200 .L0 
     /tmp/ccitCiad.s:420    .text:0000000000000204 .L0 
     /tmp/ccitCiad.s:426    .text:0000000000000204 _Z8sem_waitP4_sem
     /tmp/ccitCiad.s:429    .text:0000000000000204 .L0 
GAS LISTING /tmp/ccitCiad.s 			page 23


     /tmp/ccitCiad.s:431    .text:0000000000000204 .L0 
     /tmp/ccitCiad.s:432    .text:0000000000000208 .L0 
     /tmp/ccitCiad.s:435    .text:0000000000000210 .L0 
     /tmp/ccitCiad.s:436    .text:0000000000000210 .L0 
     /tmp/ccitCiad.s:438    .text:0000000000000214 .L0 
     /tmp/ccitCiad.s:441    .text:0000000000000218 .L0 
     /tmp/ccitCiad.s:442    .text:0000000000000218 .L0 
     /tmp/ccitCiad.s:449    .text:0000000000000224 .L0 
     /tmp/ccitCiad.s:450    .text:0000000000000224 .L0 
     /tmp/ccitCiad.s:451    .text:0000000000000224 .L0 
  src/../h/riscv.hpp:225    .text:0000000000000224 .L0 
     /tmp/ccitCiad.s:459    .text:000000000000022c .L0 
     /tmp/ccitCiad.s:460    .text:000000000000022c .L0 
     /tmp/ccitCiad.s:465    .text:0000000000000230 .L0 
     /tmp/ccitCiad.s:466    .text:0000000000000230 .L0 
     /tmp/ccitCiad.s:469    .text:0000000000000238 .L0 
     /tmp/ccitCiad.s:471    .text:000000000000023c .L0 
     /tmp/ccitCiad.s:472    .text:000000000000023c .L0 
     /tmp/ccitCiad.s:474    .text:0000000000000240 .L0 
     /tmp/ccitCiad.s:476    .text:0000000000000244 .L0 
     /tmp/ccitCiad.s:482    .text:0000000000000244 _Z10sem_signalP4_sem
     /tmp/ccitCiad.s:485    .text:0000000000000244 .L0 
     /tmp/ccitCiad.s:487    .text:0000000000000244 .L0 
     /tmp/ccitCiad.s:488    .text:0000000000000248 .L0 
     /tmp/ccitCiad.s:491    .text:0000000000000250 .L0 
     /tmp/ccitCiad.s:492    .text:0000000000000250 .L0 
     /tmp/ccitCiad.s:494    .text:0000000000000254 .L0 
     /tmp/ccitCiad.s:497    .text:0000000000000258 .L0 
     /tmp/ccitCiad.s:498    .text:0000000000000258 .L0 
     /tmp/ccitCiad.s:505    .text:0000000000000264 .L0 
     /tmp/ccitCiad.s:506    .text:0000000000000264 .L0 
     /tmp/ccitCiad.s:507    .text:0000000000000264 .L0 
  src/../h/riscv.hpp:225    .text:0000000000000264 .L0 
     /tmp/ccitCiad.s:515    .text:000000000000026c .L0 
     /tmp/ccitCiad.s:516    .text:000000000000026c .L0 
     /tmp/ccitCiad.s:521    .text:0000000000000270 .L0 
     /tmp/ccitCiad.s:522    .text:0000000000000270 .L0 
     /tmp/ccitCiad.s:525    .text:0000000000000278 .L0 
     /tmp/ccitCiad.s:527    .text:000000000000027c .L0 
     /tmp/ccitCiad.s:528    .text:000000000000027c .L0 
     /tmp/ccitCiad.s:530    .text:0000000000000280 .L0 
     /tmp/ccitCiad.s:532    .text:0000000000000284 .L0 
     /tmp/ccitCiad.s:538    .text:0000000000000284 _Z13sem_timedwaitP4_semm
     /tmp/ccitCiad.s:541    .text:0000000000000284 .L0 
     /tmp/ccitCiad.s:543    .text:0000000000000284 .L0 
     /tmp/ccitCiad.s:544    .text:0000000000000288 .L0 
     /tmp/ccitCiad.s:546    .text:000000000000028c .L0 
     /tmp/ccitCiad.s:548    .text:0000000000000290 .L0 
     /tmp/ccitCiad.s:550    .text:0000000000000290 .L0 
     /tmp/ccitCiad.s:551    .text:0000000000000290 .L0 
     /tmp/ccitCiad.s:554    .text:0000000000000298 .L0 
     /tmp/ccitCiad.s:555    .text:0000000000000298 .L0 
     /tmp/ccitCiad.s:557    .text:000000000000029c .L0 
     /tmp/ccitCiad.s:559    .text:00000000000002a0 .L0 
     /tmp/ccitCiad.s:565    .text:00000000000002a0 _Z11sem_trywaitP4_sem
     /tmp/ccitCiad.s:568    .text:00000000000002a0 .L0 
     /tmp/ccitCiad.s:570    .text:00000000000002a0 .L0 
GAS LISTING /tmp/ccitCiad.s 			page 24


     /tmp/ccitCiad.s:571    .text:00000000000002a4 .L0 
     /tmp/ccitCiad.s:574    .text:00000000000002ac .L0 
     /tmp/ccitCiad.s:575    .text:00000000000002ac .L0 
     /tmp/ccitCiad.s:577    .text:00000000000002b0 .L0 
     /tmp/ccitCiad.s:580    .text:00000000000002b4 .L0 
     /tmp/ccitCiad.s:581    .text:00000000000002b4 .L0 
     /tmp/ccitCiad.s:588    .text:00000000000002c0 .L0 
     /tmp/ccitCiad.s:589    .text:00000000000002c0 .L0 
     /tmp/ccitCiad.s:590    .text:00000000000002c0 .L0 
  src/../h/riscv.hpp:225    .text:00000000000002c0 .L0 
     /tmp/ccitCiad.s:598    .text:00000000000002c8 .L0 
     /tmp/ccitCiad.s:599    .text:00000000000002c8 .L0 
     /tmp/ccitCiad.s:604    .text:00000000000002cc .L0 
     /tmp/ccitCiad.s:605    .text:00000000000002cc .L0 
     /tmp/ccitCiad.s:608    .text:00000000000002d4 .L0 
     /tmp/ccitCiad.s:610    .text:00000000000002d8 .L0 
     /tmp/ccitCiad.s:611    .text:00000000000002d8 .L0 
     /tmp/ccitCiad.s:613    .text:00000000000002dc .L0 
     /tmp/ccitCiad.s:615    .text:00000000000002e0 .L0 
     /tmp/ccitCiad.s:621    .text:00000000000002e0 _Z10time_sleepm
     /tmp/ccitCiad.s:624    .text:00000000000002e0 .L0 
     /tmp/ccitCiad.s:625    .text:00000000000002e0 .L0 
     /tmp/ccitCiad.s:626    .text:00000000000002e4 .L0 
     /tmp/ccitCiad.s:628    .text:00000000000002e8 .L0 
     /tmp/ccitCiad.s:630    .text:00000000000002ec .L0 
     /tmp/ccitCiad.s:632    .text:00000000000002ec .L0 
     /tmp/ccitCiad.s:633    .text:00000000000002ec .L0 
     /tmp/ccitCiad.s:635    .text:00000000000002f4 .L0 
     /tmp/ccitCiad.s:636    .text:00000000000002f4 .L0 
     /tmp/ccitCiad.s:638    .text:00000000000002f8 .L0 
     /tmp/ccitCiad.s:640    .text:00000000000002fc .L0 
     /tmp/ccitCiad.s:646    .text:00000000000002fc _Z4getcv
     /tmp/ccitCiad.s:649    .text:00000000000002fc .L0 
     /tmp/ccitCiad.s:650    .text:00000000000002fc .L0 
     /tmp/ccitCiad.s:651    .text:0000000000000300 .L0 
     /tmp/ccitCiad.s:654    .text:0000000000000308 .L0 
     /tmp/ccitCiad.s:655    .text:0000000000000308 .L0 
     /tmp/ccitCiad.s:657    .text:000000000000030c .L0 
     /tmp/ccitCiad.s:659    .text:000000000000030c .L0 
     /tmp/ccitCiad.s:660    .text:000000000000030c .L0 
     /tmp/ccitCiad.s:666    .text:0000000000000318 .L0 
     /tmp/ccitCiad.s:667    .text:0000000000000318 .L0 
     /tmp/ccitCiad.s:668    .text:0000000000000318 .L0 
  src/../h/riscv.hpp:225    .text:0000000000000318 .L0 
     /tmp/ccitCiad.s:676    .text:0000000000000320 .L0 
     /tmp/ccitCiad.s:677    .text:0000000000000320 .L0 
     /tmp/ccitCiad.s:682    .text:0000000000000324 .L0 
     /tmp/ccitCiad.s:683    .text:0000000000000324 .L0 
     /tmp/ccitCiad.s:686    .text:000000000000032c .L0 
     /tmp/ccitCiad.s:688    .text:0000000000000330 .L0 
     /tmp/ccitCiad.s:689    .text:0000000000000330 .L0 
     /tmp/ccitCiad.s:691    .text:0000000000000334 .L0 
     /tmp/ccitCiad.s:693    .text:0000000000000338 .L0 
     /tmp/ccitCiad.s:699    .text:0000000000000338 _Z4putcc
     /tmp/ccitCiad.s:702    .text:0000000000000338 .L0 
     /tmp/ccitCiad.s:704    .text:0000000000000338 .L0 
     /tmp/ccitCiad.s:705    .text:000000000000033c .L0 
GAS LISTING /tmp/ccitCiad.s 			page 25


     /tmp/ccitCiad.s:708    .text:0000000000000344 .L0 
     /tmp/ccitCiad.s:709    .text:0000000000000344 .L0 
     /tmp/ccitCiad.s:711    .text:0000000000000348 .L0 
     /tmp/ccitCiad.s:714    .text:000000000000034c .L0 
     /tmp/ccitCiad.s:715    .text:000000000000034c .L0 
     /tmp/ccitCiad.s:720    .text:0000000000000358 .L0 
     /tmp/ccitCiad.s:721    .text:000000000000035c .L0 
     /tmp/ccitCiad.s:723    .text:0000000000000360 .L0 
     /tmp/ccitCiad.s:724    .text:0000000000000360 .L0 
     /tmp/ccitCiad.s:726    .text:0000000000000364 .L0 
     /tmp/ccitCiad.s:728    .text:0000000000000368 .L0 
     /tmp/ccitCiad.s:734    .text:0000000000000368 .L0 
     /tmp/ccitCiad.s:25     .text:0000000000000010 .L0 
     /tmp/ccitCiad.s:44     .text:0000000000000030 .L2
     /tmp/ccitCiad.s:215    .text:0000000000000110 .L8
     /tmp/ccitCiad.s:194    .text:00000000000000f4 .L7
     /tmp/ccitCiad.s:1927   .debug_abbrev:0000000000000000 .Ldebug_abbrev0
     /tmp/ccitCiad.s:3063   .debug_str:00000000000005d7 .LASF126
     /tmp/ccitCiad.s:2967   .debug_str:000000000000035a .LASF127
     /tmp/ccitCiad.s:2997   .debug_str:000000000000042d .LASF128
     /tmp/ccitCiad.s:5      .text:0000000000000000 .Ltext0
     /tmp/ccitCiad.s:731    .text:0000000000000368 .Letext0
     /tmp/ccitCiad.s:2849   .debug_line:0000000000000000 .Ldebug_line0
     /tmp/ccitCiad.s:2923   .debug_str:0000000000000204 .LASF0
     /tmp/ccitCiad.s:2949   .debug_str:00000000000002cb .LASF1
     /tmp/ccitCiad.s:3023   .debug_str:00000000000004dc .LASF2
     /tmp/ccitCiad.s:3029   .debug_str:0000000000000516 .LASF4
     /tmp/ccitCiad.s:2933   .debug_str:000000000000024a .LASF3
     /tmp/ccitCiad.s:2857   .debug_str:0000000000000019 .LASF5
     /tmp/ccitCiad.s:2995   .debug_str:0000000000000426 .LASF6
     /tmp/ccitCiad.s:2987   .debug_str:00000000000003e2 .LASF7
     /tmp/ccitCiad.s:2943   .debug_str:00000000000002a0 .LASF8
     /tmp/ccitCiad.s:2903   .debug_str:000000000000016d .LASF9
     /tmp/ccitCiad.s:2909   .debug_str:000000000000019e .LASF10
     /tmp/ccitCiad.s:2873   .debug_str:0000000000000086 .LASF11
     /tmp/ccitCiad.s:2901   .debug_str:000000000000015e .LASF12
     /tmp/ccitCiad.s:2883   .debug_str:00000000000000d2 .LASF13
     /tmp/ccitCiad.s:2871   .debug_str:0000000000000076 .LASF14
     /tmp/ccitCiad.s:3053   .debug_str:00000000000005a9 .LASF15
     /tmp/ccitCiad.s:2897   .debug_str:000000000000012d .LASF16
     /tmp/ccitCiad.s:3043   .debug_str:0000000000000569 .LASF17
     /tmp/ccitCiad.s:3081   .debug_str:000000000000071c .LASF18
     /tmp/ccitCiad.s:2863   .debug_str:0000000000000040 .LASF20
     /tmp/ccitCiad.s:3105   .debug_str:000000000000077c .LASF19
     /tmp/ccitCiad.s:3049   .debug_str:0000000000000596 .LASF21
     /tmp/ccitCiad.s:3085   .debug_str:000000000000072f .LASF129
     /tmp/ccitCiad.s:3047   .debug_str:0000000000000590 .LASF130
     /tmp/ccitCiad.s:3013   .debug_str:000000000000049f .LASF22
     /tmp/ccitCiad.s:2951   .debug_str:00000000000002de .LASF23
     /tmp/ccitCiad.s:3037   .debug_str:0000000000000545 .LASF24
     /tmp/ccitCiad.s:3061   .debug_str:00000000000005cc .LASF25
     /tmp/ccitCiad.s:2879   .debug_str:00000000000000ad .LASF26
     /tmp/ccitCiad.s:2891   .debug_str:0000000000000112 .LASF27
     /tmp/ccitCiad.s:2937   .debug_str:000000000000026d .LASF28
     /tmp/ccitCiad.s:2985   .debug_str:00000000000003da .LASF29
     /tmp/ccitCiad.s:2867   .debug_str:000000000000005b .LASF30
     /tmp/ccitCiad.s:3101   .debug_str:000000000000076a .LASF31
GAS LISTING /tmp/ccitCiad.s 			page 26


     /tmp/ccitCiad.s:2895   .debug_str:0000000000000120 .LASF32
     /tmp/ccitCiad.s:2911   .debug_str:00000000000001ac .LASF33
     /tmp/ccitCiad.s:2905   .debug_str:000000000000017d .LASF34
     /tmp/ccitCiad.s:2887   .debug_str:00000000000000fb .LASF35
     /tmp/ccitCiad.s:2855   .debug_str:0000000000000013 .LASF36
     /tmp/ccitCiad.s:3071   .debug_str:00000000000006d5 .LASF38
     /tmp/ccitCiad.s:2917   .debug_str:00000000000001cf .LASF37
     /tmp/ccitCiad.s:2921   .debug_str:00000000000001ec .LASF39
     /tmp/ccitCiad.s:3075   .debug_str:00000000000006f0 .LASF40
     /tmp/ccitCiad.s:3069   .debug_str:00000000000006c0 .LASF42
     /tmp/ccitCiad.s:3017   .debug_str:00000000000004b3 .LASF44
     /tmp/ccitCiad.s:2979   .debug_str:00000000000003af .LASF46
     /tmp/ccitCiad.s:2999   .debug_str:000000000000044b .LASF41
     /tmp/ccitCiad.s:3003   .debug_str:0000000000000457 .LASF43
     /tmp/ccitCiad.s:2975   .debug_str:0000000000000394 .LASF45
     /tmp/ccitCiad.s:2945   .debug_str:00000000000002b3 .LASF47
     /tmp/ccitCiad.s:3099   .debug_str:0000000000000762 .LASF48
     /tmp/ccitCiad.s:3065   .debug_str:000000000000069b .LASF49
     /tmp/ccitCiad.s:2973   .debug_str:000000000000038c .LASF50
     /tmp/ccitCiad.s:2977   .debug_str:000000000000039b .LASF51
     /tmp/ccitCiad.s:2955   .debug_str:00000000000002fc .LASF52
     /tmp/ccitCiad.s:3007   .debug_str:0000000000000474 .LASF53
     /tmp/ccitCiad.s:3113   .debug_str:00000000000007ae .LASF54
     /tmp/ccitCiad.s:2929   .debug_str:0000000000000224 .LASF55
     /tmp/ccitCiad.s:3009   .debug_str:0000000000000488 .LASF56
     /tmp/ccitCiad.s:3031   .debug_str:000000000000051d .LASF57
     /tmp/ccitCiad.s:3033   .debug_str:0000000000000530 .LASF58
     /tmp/ccitCiad.s:2875   .debug_str:0000000000000095 .LASF59
     /tmp/ccitCiad.s:2893   .debug_str:000000000000011a .LASF60
     /tmp/ccitCiad.s:2919   .debug_str:00000000000001da .LASF61
     /tmp/ccitCiad.s:2927   .debug_str:000000000000021e .LASF62
     /tmp/ccitCiad.s:2889   .debug_str:0000000000000100 .LASF63
     /tmp/ccitCiad.s:2859   .debug_str:0000000000000020 .LASF64
     /tmp/ccitCiad.s:3025   .debug_str:00000000000004ea .LASF65
     /tmp/ccitCiad.s:3021   .debug_str:00000000000004d1 .LASF66
     /tmp/ccitCiad.s:3111   .debug_str:0000000000000796 .LASF67
     /tmp/ccitCiad.s:3087   .debug_str:0000000000000735 .LASF68
     /tmp/ccitCiad.s:2881   .debug_str:00000000000000bc .LASF69
     /tmp/ccitCiad.s:3083   .debug_str:0000000000000725 .LASF70
     /tmp/ccitCiad.s:2969   .debug_str:000000000000036c .LASF71
     /tmp/ccitCiad.s:3097   .debug_str:0000000000000753 .LASF72
     /tmp/ccitCiad.s:2907   .debug_str:0000000000000182 .LASF73
     /tmp/ccitCiad.s:3035   .debug_str:0000000000000537 .LASF74
     /tmp/ccitCiad.s:2899   .debug_str:0000000000000143 .LASF75
     /tmp/ccitCiad.s:2925   .debug_str:0000000000000211 .LASF76
     /tmp/ccitCiad.s:3077   .debug_str:00000000000006f9 .LASF77
     /tmp/ccitCiad.s:3089   .debug_str:000000000000073f .LASF78
     /tmp/ccitCiad.s:2983   .debug_str:00000000000003c9 .LASF79
     /tmp/ccitCiad.s:3091   .debug_str:0000000000000744 .LASF80
     /tmp/ccitCiad.s:2935   .debug_str:000000000000025c .LASF81
     /tmp/ccitCiad.s:3093   .debug_str:0000000000000749 .LASF82
     /tmp/ccitCiad.s:2869   .debug_str:0000000000000065 .LASF83
     /tmp/ccitCiad.s:3095   .debug_str:000000000000074e .LASF84
     /tmp/ccitCiad.s:3115   .debug_str:00000000000007b6 .LASF85
     /tmp/ccitCiad.s:2981   .debug_str:00000000000003c4 .LASF86
     /tmp/ccitCiad.s:3067   .debug_str:00000000000006af .LASF87
     /tmp/ccitCiad.s:3039   .debug_str:0000000000000552 .LASF88
GAS LISTING /tmp/ccitCiad.s 			page 27


     /tmp/ccitCiad.s:2959   .debug_str:0000000000000329 .LASF89
     /tmp/ccitCiad.s:2989   .debug_str:00000000000003f5 .LASF131
     /tmp/ccitCiad.s:2941   .debug_str:000000000000027e .LASF132
     /tmp/ccitCiad.s:2961   .debug_str:0000000000000344 .LASF90
     /tmp/ccitCiad.s:2965   .debug_str:0000000000000355 .LASF111
     /tmp/ccitCiad.s:3055   .debug_str:00000000000005b5 .LASF113
     /tmp/ccitCiad.s:700    .text:0000000000000338 .LFB57
     /tmp/ccitCiad.s:729    .text:0000000000000368 .LFE57
     /tmp/ccitCiad.s:2507   .debug_loc:0000000000000000 .LLST23
     /tmp/ccitCiad.s:718    .text:0000000000000358 .LVL61
     /tmp/ccitCiad.s:3059   .debug_str:00000000000005c7 .LASF91
     /tmp/ccitCiad.s:2877   .debug_str:00000000000000a8 .LASF92
     /tmp/ccitCiad.s:3079   .debug_str:0000000000000713 .LASF94
     /tmp/ccitCiad.s:647    .text:00000000000002fc .LFB56
     /tmp/ccitCiad.s:694    .text:0000000000000338 .LFE56
     /tmp/ccitCiad.s:2521   .debug_loc:0000000000000039 .LLST22
     /tmp/ccitCiad.s:664    .text:0000000000000318 .LBB36
     /tmp/ccitCiad.s:680    .text:0000000000000324 .LBE36
     /tmp/ccitCiad.s:662    .text:0000000000000318 .LVL56
     /tmp/ccitCiad.s:3015   .debug_str:00000000000004a8 .LASF93
     /tmp/ccitCiad.s:2993   .debug_str:0000000000000416 .LASF95
     /tmp/ccitCiad.s:622    .text:00000000000002e0 .LFB55
     /tmp/ccitCiad.s:641    .text:00000000000002fc .LFE55
     /tmp/ccitCiad.s:2991   .debug_str:000000000000040a .LASF96
     /tmp/ccitCiad.s:2953   .debug_str:00000000000002e6 .LASF97
     /tmp/ccitCiad.s:566    .text:00000000000002a0 .LFB54
     /tmp/ccitCiad.s:616    .text:00000000000002e0 .LFE54
     /tmp/ccitCiad.s:2528   .debug_loc:000000000000005c .LLST20
     /tmp/ccitCiad.s:2546   .debug_loc:00000000000000a8 .LLST21
     /tmp/ccitCiad.s:586    .text:00000000000002c0 .LBB34
     /tmp/ccitCiad.s:602    .text:00000000000002cc .LBE34
     /tmp/ccitCiad.s:584    .text:00000000000002c0 .LVL53
     /tmp/ccitCiad.s:2851   .debug_str:0000000000000000 .LASF98
     /tmp/ccitCiad.s:2885   .debug_str:00000000000000e2 .LASF99
     /tmp/ccitCiad.s:539    .text:0000000000000284 .LFB53
     /tmp/ccitCiad.s:560    .text:00000000000002a0 .LFE53
     /tmp/ccitCiad.s:2553   .debug_loc:00000000000000cb .LLST19
     /tmp/ccitCiad.s:2939   .debug_str:0000000000000276 .LASF100
     /tmp/ccitCiad.s:2915   .debug_str:00000000000001c4 .LASF101
     /tmp/ccitCiad.s:3019   .debug_str:00000000000004bc .LASF102
     /tmp/ccitCiad.s:483    .text:0000000000000244 .LFB52
     /tmp/ccitCiad.s:533    .text:0000000000000284 .LFE52
     /tmp/ccitCiad.s:2567   .debug_loc:0000000000000104 .LLST17
     /tmp/ccitCiad.s:2585   .debug_loc:0000000000000150 .LLST18
     /tmp/ccitCiad.s:503    .text:0000000000000264 .LBB32
     /tmp/ccitCiad.s:519    .text:0000000000000270 .LBE32
     /tmp/ccitCiad.s:501    .text:0000000000000264 .LVL46
     /tmp/ccitCiad.s:3041   .debug_str:0000000000000560 .LASF103
     /tmp/ccitCiad.s:2931   .debug_str:0000000000000238 .LASF104
     /tmp/ccitCiad.s:427    .text:0000000000000204 .LFB51
     /tmp/ccitCiad.s:477    .text:0000000000000244 .LFE51
     /tmp/ccitCiad.s:2592   .debug_loc:0000000000000173 .LLST15
     /tmp/ccitCiad.s:2610   .debug_loc:00000000000001bf .LLST16
     /tmp/ccitCiad.s:447    .text:0000000000000224 .LBB30
     /tmp/ccitCiad.s:463    .text:0000000000000230 .LBE30
     /tmp/ccitCiad.s:445    .text:0000000000000224 .LVL41
     /tmp/ccitCiad.s:3005   .debug_str:000000000000046a .LASF105
GAS LISTING /tmp/ccitCiad.s 			page 28


     /tmp/ccitCiad.s:2865   .debug_str:0000000000000048 .LASF106
     /tmp/ccitCiad.s:371    .text:00000000000001c4 .LFB50
     /tmp/ccitCiad.s:421    .text:0000000000000204 .LFE50
     /tmp/ccitCiad.s:3103   .debug_str:0000000000000775 .LASF107
     /tmp/ccitCiad.s:2617   .debug_loc:00000000000001e2 .LLST13
     /tmp/ccitCiad.s:2635   .debug_loc:000000000000022e .LLST14
     /tmp/ccitCiad.s:391    .text:00000000000001e4 .LBB28
     /tmp/ccitCiad.s:407    .text:00000000000001f0 .LBE28
     /tmp/ccitCiad.s:389    .text:00000000000001e4 .LVL36
     /tmp/ccitCiad.s:3073   .debug_str:00000000000006e7 .LASF108
     /tmp/ccitCiad.s:3027   .debug_str:0000000000000502 .LASF109
     /tmp/ccitCiad.s:313    .text:0000000000000180 .LFB49
     /tmp/ccitCiad.s:365    .text:00000000000001c4 .LFE49
     /tmp/ccitCiad.s:2642   .debug_loc:0000000000000251 .LLST10
     /tmp/ccitCiad.s:3001   .debug_str:0000000000000452 .LASF110
     /tmp/ccitCiad.s:2660   .debug_loc:000000000000029d .LLST11
     /tmp/ccitCiad.s:2674   .debug_loc:00000000000002d6 .LLST12
     /tmp/ccitCiad.s:335    .text:00000000000001a4 .LBB26
     /tmp/ccitCiad.s:351    .text:00000000000001b0 .LBE26
     /tmp/ccitCiad.s:333    .text:00000000000001a4 .LVL31
     /tmp/ccitCiad.s:3011   .debug_str:000000000000048f .LASF112
     /tmp/ccitCiad.s:2861   .debug_str:000000000000002b .LASF114
     /tmp/ccitCiad.s:281    .text:0000000000000154 .LFB48
     /tmp/ccitCiad.s:307    .text:0000000000000180 .LFE48
     /tmp/ccitCiad.s:296    .text:0000000000000170 .LVL27
     /tmp/ccitCiad.s:2963   .debug_str:0000000000000349 .LASF115
     /tmp/ccitCiad.s:3045   .debug_str:000000000000057f .LASF116
     /tmp/ccitCiad.s:228    .text:0000000000000118 .LFB47
     /tmp/ccitCiad.s:275    .text:0000000000000154 .LFE47
     /tmp/ccitCiad.s:2681   .debug_loc:00000000000002f9 .LLST9
     /tmp/ccitCiad.s:245    .text:0000000000000134 .LBB24
     /tmp/ccitCiad.s:261    .text:0000000000000140 .LBE24
     /tmp/ccitCiad.s:243    .text:0000000000000134 .LVL24
     /tmp/ccitCiad.s:3051   .debug_str:000000000000059b .LASF117
     /tmp/ccitCiad.s:2957   .debug_str:0000000000000304 .LASF118
     /tmp/ccitCiad.s:133    .text:0000000000000090 .LFB46
     /tmp/ccitCiad.s:222    .text:0000000000000118 .LFE46
     /tmp/ccitCiad.s:2688   .debug_loc:000000000000031c .LLST4
     /tmp/ccitCiad.s:2853   .debug_str:000000000000000e .LASF119
     /tmp/ccitCiad.s:2710   .debug_loc:000000000000037b .LLST5
     /tmp/ccitCiad.s:2732   .debug_loc:00000000000003da .LLST6
     /tmp/ccitCiad.s:3109   .debug_str:0000000000000790 .LASF120
     /tmp/ccitCiad.s:2754   .debug_loc:0000000000000439 .LLST7
     /tmp/ccitCiad.s:2769   .debug_loc:0000000000000482 .LLST8
     /tmp/ccitCiad.s:173    .text:00000000000000e4 .LBB22
     /tmp/ccitCiad.s:189    .text:00000000000000f0 .LBE22
     /tmp/ccitCiad.s:159    .text:00000000000000c4 .LVL14
     /tmp/ccitCiad.s:171    .text:00000000000000e4 .LVL16
     /tmp/ccitCiad.s:3057   .debug_str:00000000000005be .LASF121
     /tmp/ccitCiad.s:3107   .debug_str:0000000000000782 .LASF122
     /tmp/ccitCiad.s:86     .text:0000000000000058 .LFB45
     /tmp/ccitCiad.s:127    .text:0000000000000090 .LFE45
     /tmp/ccitCiad.s:2776   .debug_loc:00000000000004a5 .LLST2
     /tmp/ccitCiad.s:2794   .debug_loc:00000000000004f1 .LLST3
     /tmp/ccitCiad.s:104    .text:0000000000000078 .LVL9
     /tmp/ccitCiad.s:2971   .debug_str:0000000000000382 .LASF123
     /tmp/ccitCiad.s:2913   .debug_str:00000000000001b6 .LASF124
GAS LISTING /tmp/ccitCiad.s 			page 29


     /tmp/ccitCiad.s:10     .text:0000000000000000 .LFB44
     /tmp/ccitCiad.s:80     .text:0000000000000058 .LFE44
     /tmp/ccitCiad.s:2947   .debug_str:00000000000002c6 .LASF125
     /tmp/ccitCiad.s:2801   .debug_loc:0000000000000514 .LLST0
     /tmp/ccitCiad.s:2819   .debug_loc:0000000000000560 .LLST1
     /tmp/ccitCiad.s:51     .text:000000000000003c .LBB20
     /tmp/ccitCiad.s:68     .text:0000000000000048 .LBE20
     /tmp/ccitCiad.s:49     .text:000000000000003c .LVL5
     /tmp/ccitCiad.s:703    .text:0000000000000338 .LVL59
     /tmp/ccitCiad.s:716    .text:0000000000000350 .LVL60
     /tmp/ccitCiad.s:678    .text:0000000000000324 .LVL57
     /tmp/ccitCiad.s:684    .text:0000000000000328 .LVL58
     /tmp/ccitCiad.s:569    .text:00000000000002a0 .LVL51
     /tmp/ccitCiad.s:582    .text:00000000000002b8 .LVL52
     /tmp/ccitCiad.s:600    .text:00000000000002cc .LVL54
     /tmp/ccitCiad.s:606    .text:00000000000002d0 .LVL55
     /tmp/ccitCiad.s:542    .text:0000000000000284 .LVL49
     /tmp/ccitCiad.s:552    .text:0000000000000294 .LVL50
     /tmp/ccitCiad.s:486    .text:0000000000000244 .LVL44
     /tmp/ccitCiad.s:499    .text:000000000000025c .LVL45
     /tmp/ccitCiad.s:517    .text:0000000000000270 .LVL47
     /tmp/ccitCiad.s:523    .text:0000000000000274 .LVL48
     /tmp/ccitCiad.s:430    .text:0000000000000204 .LVL39
     /tmp/ccitCiad.s:443    .text:000000000000021c .LVL40
     /tmp/ccitCiad.s:461    .text:0000000000000230 .LVL42
     /tmp/ccitCiad.s:467    .text:0000000000000234 .LVL43
     /tmp/ccitCiad.s:374    .text:00000000000001c4 .LVL34
     /tmp/ccitCiad.s:387    .text:00000000000001dc .LVL35
     /tmp/ccitCiad.s:405    .text:00000000000001f0 .LVL37
     /tmp/ccitCiad.s:411    .text:00000000000001f4 .LVL38
     /tmp/ccitCiad.s:316    .text:0000000000000180 .LVL28
     /tmp/ccitCiad.s:331    .text:000000000000019c .LVL30
     /tmp/ccitCiad.s:329    .text:0000000000000198 .LVL29
     /tmp/ccitCiad.s:349    .text:00000000000001b0 .LVL32
     /tmp/ccitCiad.s:355    .text:00000000000001b4 .LVL33
     /tmp/ccitCiad.s:259    .text:0000000000000140 .LVL25
     /tmp/ccitCiad.s:265    .text:0000000000000144 .LVL26
     /tmp/ccitCiad.s:136    .text:0000000000000090 .LVL12
     /tmp/ccitCiad.s:157    .text:00000000000000bc .LVL13
     /tmp/ccitCiad.s:204    .text:0000000000000100 .LVL19
     /tmp/ccitCiad.s:214    .text:0000000000000110 .LVL22
     /tmp/ccitCiad.s:207    .text:0000000000000104 .LVL20
     /tmp/ccitCiad.s:210    .text:0000000000000108 .LVL21
     /tmp/ccitCiad.s:169    .text:00000000000000dc .LVL15
     /tmp/ccitCiad.s:219    .text:0000000000000114 .LVL23
     /tmp/ccitCiad.s:187    .text:00000000000000f0 .LVL17
     /tmp/ccitCiad.s:193    .text:00000000000000f4 .LVL18
     /tmp/ccitCiad.s:89     .text:0000000000000058 .LVL7
     /tmp/ccitCiad.s:102    .text:0000000000000070 .LVL8
     /tmp/ccitCiad.s:112    .text:000000000000007c .LVL10
     /tmp/ccitCiad.s:117    .text:0000000000000080 .LVL11
     /tmp/ccitCiad.s:14     .text:0000000000000000 .LVL0
     /tmp/ccitCiad.s:29     .text:0000000000000020 .LVL1
     /tmp/ccitCiad.s:33     .text:0000000000000024 .LVL2
     /tmp/ccitCiad.s:37     .text:0000000000000028 .LVL3
     /tmp/ccitCiad.s:735    .debug_info:0000000000000000 .Ldebug_info0

GAS LISTING /tmp/ccitCiad.s 			page 30


UNDEFINED SYMBOLS
_ZN15MemoryAllocator10memSegSizeE
_ZN5Riscv13sysCallWraperEz
