GAS LISTING /tmp/cc8Ki6Lj.s 			page 1


   1              		.file	"Thread.cpp"
   2              		.option pic
   3              		.option norelax
   4              		.text
   5              	.Ltext0:
   6              		.section	.text._ZN6Thread3runEv,"axG",@progbits,_ZN6Thread3runEv,comdat
   7              		.align	2
   8              		.weak	_ZN6Thread3runEv
  10              	_ZN6Thread3runEv:
  11              	.LFB0:
  12              		.file 1 "src/../h/syscall_cpp.hpp"
   1:src/../h/syscall_cpp.hpp **** #ifndef _syscall_cpp
   2:src/../h/syscall_cpp.hpp **** #define _syscall_cpp
   3:src/../h/syscall_cpp.hpp **** #include "syscall_c.hpp"
   4:src/../h/syscall_cpp.hpp **** 
   5:src/../h/syscall_cpp.hpp **** void* operator new (size_t);
   6:src/../h/syscall_cpp.hpp **** 
   7:src/../h/syscall_cpp.hpp **** void* operator new[](size_t size);
   8:src/../h/syscall_cpp.hpp **** 
   9:src/../h/syscall_cpp.hpp **** void operator delete (void*) noexcept;
  10:src/../h/syscall_cpp.hpp **** 
  11:src/../h/syscall_cpp.hpp **** void operator delete[](void* ptr) noexcept;
  12:src/../h/syscall_cpp.hpp **** 
  13:src/../h/syscall_cpp.hpp **** 
  14:src/../h/syscall_cpp.hpp **** class Thread {
  15:src/../h/syscall_cpp.hpp **** public:
  16:src/../h/syscall_cpp.hpp ****     Thread (void (*body)(void*), void* arg);
  17:src/../h/syscall_cpp.hpp ****     virtual ~Thread ();
  18:src/../h/syscall_cpp.hpp ****     int start ();
  19:src/../h/syscall_cpp.hpp ****     static void dispatch ();
  20:src/../h/syscall_cpp.hpp ****     static int sleep (time_t);
  21:src/../h/syscall_cpp.hpp **** 
  22:src/../h/syscall_cpp.hpp ****     friend void threadStartWrapper(void *arg);
  23:src/../h/syscall_cpp.hpp **** 
  24:src/../h/syscall_cpp.hpp **** protected:
  25:src/../h/syscall_cpp.hpp ****     Thread ();
  26:src/../h/syscall_cpp.hpp ****     virtual void run () {}
  13              		.loc 1 26 18
  14              		.cfi_startproc
  15              	.LVL0:
  16 0000 130101FF 		addi	sp,sp,-16
  17              		.cfi_def_cfa_offset 16
  18 0004 23348100 		sd	s0,8(sp)
  19              		.cfi_offset 8, -8
  20 0008 13040101 		addi	s0,sp,16
  21              		.cfi_def_cfa 8, 0
  22              		.loc 1 26 26 is_stmt 0
  23 000c 03348100 		ld	s0,8(sp)
  24              		.cfi_restore 8
  25              		.cfi_def_cfa 2, 16
  26 0010 13010101 		addi	sp,sp,16
  27              		.cfi_def_cfa_offset 0
  28 0014 67800000 		jr	ra
  29              		.cfi_endproc
  30              	.LFE0:
  32              		.text
  33              		.align	2
GAS LISTING /tmp/cc8Ki6Lj.s 			page 2


  34              		.globl	_Z18threadStartWrapperPv
  36              	_Z18threadStartWrapperPv:
  37              	.LFB22:
  38              		.file 2 "src/Thread.cpp"
   1:src/Thread.cpp **** //
   2:src/Thread.cpp **** // Created by os on 6/26/24.
   3:src/Thread.cpp **** //
   4:src/Thread.cpp **** #include "../h/syscall_cpp.hpp"
   5:src/Thread.cpp **** #include "../h/tcb.hpp"
   6:src/Thread.cpp **** 
   7:src/Thread.cpp **** void threadStartWrapper(void *arg) {
  39              		.loc 2 7 36 is_stmt 1
  40              		.cfi_startproc
  41              	.LVL1:
  42 0000 130101FF 		addi	sp,sp,-16
  43              		.cfi_def_cfa_offset 16
  44 0004 23341100 		sd	ra,8(sp)
  45 0008 23308100 		sd	s0,0(sp)
  46              		.cfi_offset 1, -8
  47              		.cfi_offset 8, -16
  48 000c 13040101 		addi	s0,sp,16
  49              		.cfi_def_cfa 8, 0
   8:src/Thread.cpp ****     Thread *thread = (Thread *) arg;
  50              		.loc 2 8 5
  51              	.LVL2:
   9:src/Thread.cpp ****     thread->run();
  52              		.loc 2 9 5
  53              		.loc 2 9 17 is_stmt 0
  54 0010 83370500 		ld	a5,0(a0)
  55 0014 83B70701 		ld	a5,16(a5)
  56              		.loc 2 9 16
  57 0018 E7800700 		jalr	a5
  58              	.LVL3:
  10:src/Thread.cpp ****     /*if (thread->body != nullptr) {
  11:src/Thread.cpp ****         thread->body(thread->arg);
  12:src/Thread.cpp ****     } else {
  13:src/Thread.cpp ****         thread->run();
  14:src/Thread.cpp ****     }*/
  15:src/Thread.cpp **** }
  59              		.loc 2 15 1
  60 001c 83308100 		ld	ra,8(sp)
  61              		.cfi_restore 1
  62 0020 03340100 		ld	s0,0(sp)
  63              		.cfi_restore 8
  64              		.cfi_def_cfa 2, 16
  65 0024 13010101 		addi	sp,sp,16
  66              		.cfi_def_cfa_offset 0
  67 0028 67800000 		jr	ra
  68              		.cfi_endproc
  69              	.LFE22:
  71              		.align	2
  72              		.globl	_ZN6ThreadD2Ev
  74              	_ZN6ThreadD2Ev:
  75              	.LFB27:
  16:src/Thread.cpp **** 
  17:src/Thread.cpp **** Thread::Thread (void (*body)(void*), void* arg):myHandle(nullptr), body(body), arg(arg){}
  18:src/Thread.cpp **** 
GAS LISTING /tmp/cc8Ki6Lj.s 			page 3


  19:src/Thread.cpp **** Thread::~Thread () {
  76              		.loc 2 19 1 is_stmt 1
  77              		.cfi_startproc
  78              	.LVL4:
  79 002c 130101FF 		addi	sp,sp,-16
  80              		.cfi_def_cfa_offset 16
  81 0030 23348100 		sd	s0,8(sp)
  82              		.cfi_offset 8, -8
  83 0034 13040101 		addi	s0,sp,16
  84              		.cfi_def_cfa 8, 0
  20:src/Thread.cpp ****    /* TCB* h = (TCB*)myHandle;
  21:src/Thread.cpp ****     delete h;*/
  22:src/Thread.cpp **** }
  85              		.loc 2 22 1 is_stmt 0
  86 0038 03348100 		ld	s0,8(sp)
  87              		.cfi_restore 8
  88              		.cfi_def_cfa 2, 16
  89 003c 13010101 		addi	sp,sp,16
  90              		.cfi_def_cfa_offset 0
  91 0040 67800000 		jr	ra
  92              		.cfi_endproc
  93              	.LFE27:
  95              		.globl	_ZN6ThreadD1Ev
  96              		.set	_ZN6ThreadD1Ev,_ZN6ThreadD2Ev
  97              		.align	2
  98              		.globl	_ZN6ThreadD0Ev
 100              	_ZN6ThreadD0Ev:
 101              	.LFB29:
  19:src/Thread.cpp ****    /* TCB* h = (TCB*)myHandle;
 102              		.loc 2 19 1 is_stmt 1
 103              		.cfi_startproc
 104              	.LVL5:
 105 0044 130101FF 		addi	sp,sp,-16
 106              		.cfi_def_cfa_offset 16
 107 0048 23341100 		sd	ra,8(sp)
 108 004c 23308100 		sd	s0,0(sp)
 109              		.cfi_offset 1, -8
 110              		.cfi_offset 8, -16
 111 0050 13040101 		addi	s0,sp,16
 112              		.cfi_def_cfa 8, 0
 113              		.loc 2 22 1 is_stmt 0
 114 0054 97000000 		call	_ZdlPv@plt
 114      E7800000 
 115              	.LVL6:
 116 005c 83308100 		ld	ra,8(sp)
 117              		.cfi_restore 1
 118 0060 03340100 		ld	s0,0(sp)
 119              		.cfi_restore 8
 120              		.cfi_def_cfa 2, 16
 121 0064 13010101 		addi	sp,sp,16
 122              		.cfi_def_cfa_offset 0
 123 0068 67800000 		jr	ra
 124              		.cfi_endproc
 125              	.LFE29:
 127              		.align	2
 128              		.globl	_ZN6ThreadC2EPFvPvES0_
 130              	_ZN6ThreadC2EPFvPvES0_:
GAS LISTING /tmp/cc8Ki6Lj.s 			page 4


 131              	.LFB24:
  17:src/Thread.cpp **** 
 132              		.loc 2 17 1 is_stmt 1
 133              		.cfi_startproc
 134              	.LVL7:
 135 006c 130101FF 		addi	sp,sp,-16
 136              		.cfi_def_cfa_offset 16
 137 0070 23348100 		sd	s0,8(sp)
 138              		.cfi_offset 8, -8
 139 0074 13040101 		addi	s0,sp,16
 140              		.cfi_def_cfa 8, 0
 141              	.LBB2:
  17:src/Thread.cpp **** 
 142              		.loc 2 17 87 is_stmt 0
 143 0078 97070000 		lla	a5,_ZTV6Thread+16
 143      93870700 
 144 0080 2330F500 		sd	a5,0(a0)
 145 0084 23340500 		sd	zero,8(a0)
 146 0088 2338B500 		sd	a1,16(a0)
 147 008c 233CC500 		sd	a2,24(a0)
 148              	.LBE2:
  17:src/Thread.cpp **** 
 149              		.loc 2 17 89
 150 0090 03348100 		ld	s0,8(sp)
 151              		.cfi_restore 8
 152              		.cfi_def_cfa 2, 16
 153 0094 13010101 		addi	sp,sp,16
 154              		.cfi_def_cfa_offset 0
 155 0098 67800000 		jr	ra
 156              		.cfi_endproc
 157              	.LFE24:
 159              		.globl	_ZN6ThreadC1EPFvPvES0_
 160              		.set	_ZN6ThreadC1EPFvPvES0_,_ZN6ThreadC2EPFvPvES0_
 161              		.align	2
 162              		.globl	_ZN6Thread5startEv
 164              	_ZN6Thread5startEv:
 165              	.LFB30:
  23:src/Thread.cpp **** /*
  24:src/Thread.cpp **** int Thread::start (){
  25:src/Thread.cpp ****     return thread_create(&myHandle, &threadStartWrapper, (void*)this);
  26:src/Thread.cpp **** }*/
  27:src/Thread.cpp **** 
  28:src/Thread.cpp **** int Thread::start() {
 166              		.loc 2 28 21 is_stmt 1
 167              		.cfi_startproc
 168              	.LVL8:
 169 009c 130101FF 		addi	sp,sp,-16
 170              		.cfi_def_cfa_offset 16
 171 00a0 23341100 		sd	ra,8(sp)
 172 00a4 23308100 		sd	s0,0(sp)
 173              		.cfi_offset 1, -8
 174              		.cfi_offset 8, -16
 175 00a8 13040101 		addi	s0,sp,16
 176              		.cfi_def_cfa 8, 0
  29:src/Thread.cpp ****     if (this->body) return thread_create(&this->myHandle, this->body, this->arg);
 177              		.loc 2 29 5
 178              		.loc 2 29 15 is_stmt 0
GAS LISTING /tmp/cc8Ki6Lj.s 			page 5


 179 00ac 83350501 		ld	a1,16(a0)
 180              		.loc 2 29 5
 181 00b0 63820502 		beqz	a1,.L12
 182              		.loc 2 29 21 is_stmt 1 discriminator 1
 183              		.loc 2 29 41 is_stmt 0 discriminator 1
 184 00b4 03368501 		ld	a2,24(a0)
 185 00b8 13058500 		addi	a0,a0,8
 186              	.LVL9:
 187 00bc 97000000 		call	_Z13thread_createPP7_threadPFvPvES2_@plt
 187      E7800000 
 188              	.LVL10:
 189              	.L13:
  30:src/Thread.cpp ****     else return thread_create(&this->myHandle, threadStartWrapper,this);
  31:src/Thread.cpp **** }
 190              		.loc 2 31 1
 191 00c4 83308100 		ld	ra,8(sp)
 192              		.cfi_remember_state
 193              		.cfi_restore 1
 194 00c8 03340100 		ld	s0,0(sp)
 195              		.cfi_restore 8
 196              		.cfi_def_cfa 2, 16
 197 00cc 13010101 		addi	sp,sp,16
 198              		.cfi_def_cfa_offset 0
 199 00d0 67800000 		jr	ra
 200              	.LVL11:
 201              	.L12:
 202              		.cfi_restore_state
  30:src/Thread.cpp ****     else return thread_create(&this->myHandle, threadStartWrapper,this);
 203              		.loc 2 30 10 is_stmt 1
  30:src/Thread.cpp ****     else return thread_create(&this->myHandle, threadStartWrapper,this);
 204              		.loc 2 30 30 is_stmt 0
 205 00d4 13060500 		mv	a2,a0
 206 00d8 97050000 		lla	a1,_Z18threadStartWrapperPv
 206      93850500 
 207 00e0 13058500 		addi	a0,a0,8
 208              	.LVL12:
 209 00e4 97000000 		call	_Z13thread_createPP7_threadPFvPvES2_@plt
 209      E7800000 
 210              	.LVL13:
  30:src/Thread.cpp ****     else return thread_create(&this->myHandle, threadStartWrapper,this);
 211              		.loc 2 30 71
 212 00ec 6FF09FFD 		j	.L13
 213              		.cfi_endproc
 214              	.LFE30:
 216              		.align	2
 217              		.globl	_ZN6Thread8dispatchEv
 219              	_ZN6Thread8dispatchEv:
 220              	.LFB31:
  32:src/Thread.cpp **** void Thread::dispatch (){
 221              		.loc 2 32 25 is_stmt 1
 222              		.cfi_startproc
 223 00f0 130101FF 		addi	sp,sp,-16
 224              		.cfi_def_cfa_offset 16
 225 00f4 23341100 		sd	ra,8(sp)
 226 00f8 23308100 		sd	s0,0(sp)
 227              		.cfi_offset 1, -8
 228              		.cfi_offset 8, -16
GAS LISTING /tmp/cc8Ki6Lj.s 			page 6


 229 00fc 13040101 		addi	s0,sp,16
 230              		.cfi_def_cfa 8, 0
  33:src/Thread.cpp ****     thread_dispatch();
 231              		.loc 2 33 5
 232              		.loc 2 33 20 is_stmt 0
 233 0100 97000000 		call	_Z15thread_dispatchv@plt
 233      E7800000 
 234              	.LVL14:
  34:src/Thread.cpp **** }
 235              		.loc 2 34 1
 236 0108 83308100 		ld	ra,8(sp)
 237              		.cfi_restore 1
 238 010c 03340100 		ld	s0,0(sp)
 239              		.cfi_restore 8
 240              		.cfi_def_cfa 2, 16
 241 0110 13010101 		addi	sp,sp,16
 242              		.cfi_def_cfa_offset 0
 243 0114 67800000 		jr	ra
 244              		.cfi_endproc
 245              	.LFE31:
 247              		.align	2
 248              		.globl	_ZN6Thread5sleepEm
 250              	_ZN6Thread5sleepEm:
 251              	.LFB32:
  35:src/Thread.cpp **** int Thread::sleep(time_t) {
 252              		.loc 2 35 27 is_stmt 1
 253              		.cfi_startproc
 254 0118 130101FF 		addi	sp,sp,-16
 255              		.cfi_def_cfa_offset 16
 256 011c 23348100 		sd	s0,8(sp)
 257              		.cfi_offset 8, -8
 258 0120 13040101 		addi	s0,sp,16
 259              		.cfi_def_cfa 8, 0
  36:src/Thread.cpp ****     return 0;
 260              		.loc 2 36 5
  37:src/Thread.cpp **** }
 261              		.loc 2 37 1 is_stmt 0
 262 0124 13050000 		li	a0,0
 263 0128 03348100 		ld	s0,8(sp)
 264              		.cfi_restore 8
 265              		.cfi_def_cfa 2, 16
 266 012c 13010101 		addi	sp,sp,16
 267              		.cfi_def_cfa_offset 0
 268 0130 67800000 		jr	ra
 269              		.cfi_endproc
 270              	.LFE32:
 272              		.align	2
 273              		.globl	_ZN6ThreadC2Ev
 275              	_ZN6ThreadC2Ev:
 276              	.LFB34:
  38:src/Thread.cpp **** 
  39:src/Thread.cpp **** Thread::Thread():myHandle(nullptr), body(nullptr), arg(nullptr) {}
 277              		.loc 2 39 1 is_stmt 1
 278              		.cfi_startproc
 279              	.LVL15:
 280 0134 130101FF 		addi	sp,sp,-16
 281              		.cfi_def_cfa_offset 16
GAS LISTING /tmp/cc8Ki6Lj.s 			page 7


 282 0138 23348100 		sd	s0,8(sp)
 283              		.cfi_offset 8, -8
 284 013c 13040101 		addi	s0,sp,16
 285              		.cfi_def_cfa 8, 0
 286              	.LBB3:
 287              		.loc 2 39 63 is_stmt 0
 288 0140 97070000 		lla	a5,_ZTV6Thread+16
 288      93870700 
 289 0148 2330F500 		sd	a5,0(a0)
 290 014c 23340500 		sd	zero,8(a0)
 291 0150 23380500 		sd	zero,16(a0)
 292 0154 233C0500 		sd	zero,24(a0)
 293              	.LBE3:
 294              		.loc 2 39 66
 295 0158 03348100 		ld	s0,8(sp)
 296              		.cfi_restore 8
 297              		.cfi_def_cfa 2, 16
 298 015c 13010101 		addi	sp,sp,16
 299              		.cfi_def_cfa_offset 0
 300 0160 67800000 		jr	ra
 301              		.cfi_endproc
 302              	.LFE34:
 304              		.globl	_ZN6ThreadC1Ev
 305              		.set	_ZN6ThreadC1Ev,_ZN6ThreadC2Ev
 306              		.weak	_ZTV6Thread
 307              		.section	.data.rel.ro.local._ZTV6Thread,"awG",@progbits,_ZTV6Thread,comdat
 308              		.align	3
 311              	_ZTV6Thread:
 312 0000 00000000 		.dword	0
 312      00000000 
 313 0008 00000000 		.dword	0
 313      00000000 
 314 0010 00000000 		.dword	_ZN6ThreadD1Ev
 314      00000000 
 315 0018 00000000 		.dword	_ZN6ThreadD0Ev
 315      00000000 
 316 0020 00000000 		.dword	_ZN6Thread3runEv
 316      00000000 
 317              		.text
 318              	.Letext0:
 319              		.file 3 "src/../h/../lib/hw.h"
 320              		.file 4 "src/../h/syscall_c.hpp"
GAS LISTING /tmp/cc8Ki6Lj.s 			page 8

