GAS LISTING /tmp/ccy8Ci8t.s 			page 1


   1              		.file	"userMain.cpp"
   2              		.option pic
   3              		.option norelax
   4              		.text
   5              	.Ltext0:
   6              		.section	.rodata.str1.8,"aMS",@progbits,1
   7              		.align	3
   8              	.LC0:
   9 0000 556E6573 		.string	"Unesite broj testa? [1-7]\n"
   9      69746520 
   9      62726F6A 
   9      20746573 
   9      74613F20 
  10 001b 00000000 		.align	3
  10      00
  11              	.LC1:
  12 0020 4E696A65 		.string	"Nije navedeno da je zadatak 4 implementiran\n"
  12      206E6176 
  12      6564656E 
  12      6F206461 
  12      206A6520 
  13 004d 000000   		.align	3
  14              	.LC2:
  15 0050 54455354 		.string	"TEST 1 (zadatak 2, niti C API i sinhrona promena konteksta)\n"
  15      20312028 
  15      7A616461 
  15      74616B20 
  15      322C206E 
  16 008d 000000   		.align	3
  17              	.LC3:
  18 0090 54455354 		.string	"TEST 2 (zadatak 2., niti CPP API i sinhrona promena konteksta)\n"
  18      20322028 
  18      7A616461 
  18      74616B20 
  18      322E2C20 
  19              		.align	3
  20              	.LC4:
  21 00d0 54455354 		.string	"TEST 3 (zadatak 3., kompletan C API sa semaforima, sinhrona promena konteksta)\n"
  21      20332028 
  21      7A616461 
  21      74616B20 
  21      332E2C20 
  22              		.align	3
  23              	.LC5:
  24 0120 54455354 		.string	"TEST 4 (zadatak 3., kompletan CPP API sa semaforima, sinhrona promena konteksta)\n"
  24      20342028 
  24      7A616461 
  24      74616B20 
  24      332E2C20 
  25 0172 00000000 		.align	3
  25      0000
  26              	.LC6:
  27 0178 54657374 		.string	"Test se nije uspesno zavrsio\n"
  27      20736520 
  27      6E696A65 
  27      20757370 
  27      65736E6F 
GAS LISTING /tmp/ccy8Ci8t.s 			page 2


  28 0196 0000     		.align	3
  29              	.LC7:
  30 0198 54455354 		.string	"TEST 7 (zadatak 2., testiranje da li se korisnicki kod izvrsava u korisnickom rezimu)\n"
  30      20372028 
  30      7A616461 
  30      74616B20 
  30      322E2C20 
  31 01ef 00       		.align	3
  32              	.LC8:
  33 01f0 4E697374 		.string	"Niste uneli odgovarajuci broj za test\n"
  33      6520756E 
  33      656C6920 
  33      6F64676F 
  33      76617261 
  34              		.text
  35              		.align	2
  36              		.globl	_Z8userMainv
  38              	_Z8userMainv:
  39              	.LFB0:
  40              		.file 1 "test/userMain.cpp"
   1:test/userMain.cpp **** #include "printing.hpp"
   2:test/userMain.cpp **** 
   3:test/userMain.cpp **** #define LEVEL_1_IMPLEMENTED 0
   4:test/userMain.cpp **** #define LEVEL_2_IMPLEMENTED 1
   5:test/userMain.cpp **** #define LEVEL_3_IMPLEMENTED 1
   6:test/userMain.cpp **** #define LEVEL_4_IMPLEMENTED 0
   7:test/userMain.cpp **** 
   8:test/userMain.cpp **** #if LEVEL_2_IMPLEMENTED == 1
   9:test/userMain.cpp **** // TEST 1 (zadatak 2, niti C API i sinhrona promena konteksta)
  10:test/userMain.cpp **** #include "../test/Threads_C_API_test.hpp"
  11:test/userMain.cpp **** // TEST 2 (zadatak 2., niti CPP API i sinhrona promena konteksta)
  12:test/userMain.cpp **** #include "../test/Threads_CPP_API_test.hpp"
  13:test/userMain.cpp **** // TEST 7 (zadatak 2., testiranje da li se korisnicki kod izvrsava u korisnickom rezimu)
  14:test/userMain.cpp **** #include "../test/System_Mode_test.hpp"
  15:test/userMain.cpp **** #endif
  16:test/userMain.cpp **** 
  17:test/userMain.cpp **** #if LEVEL_3_IMPLEMENTED == 1
  18:test/userMain.cpp **** // TEST 3 (zadatak 3., kompletan C API sa semaforima, sinhrona promena konteksta)
  19:test/userMain.cpp **** #include "../test/ConsumerProducer_C_API_test.hpp"
  20:test/userMain.cpp **** // TEST 4 (zadatak 3., kompletan CPP API sa semaforima, sinhrona promena konteksta)
  21:test/userMain.cpp **** #include "../test/ConsumerProducer_CPP_Sync_API_test.hpp"
  22:test/userMain.cpp **** #endif
  23:test/userMain.cpp **** 
  24:test/userMain.cpp **** #if LEVEL_4_IMPLEMENTED == 1
  25:test/userMain.cpp **** // TEST 5 (zadatak 4., thread_sleep test C API)
  26:test/userMain.cpp **** #include "../test/ThreadSleep_C_API_test.hpp"
  27:test/userMain.cpp **** // TEST 6 (zadatak 4. CPP API i asinhrona promena konteksta)
  28:test/userMain.cpp **** #include "../test/ConsumerProducer_CPP_API_test.hpp"
  29:test/userMain.cpp **** #include "System_Mode_test.hpp"
  30:test/userMain.cpp **** 
  31:test/userMain.cpp **** #endif
  32:test/userMain.cpp **** 
  33:test/userMain.cpp **** void userMain() {
  41              		.loc 1 33 17
  42              		.cfi_startproc
  43 0000 130101FE 		addi	sp,sp,-32
  44              		.cfi_def_cfa_offset 32
GAS LISTING /tmp/ccy8Ci8t.s 			page 3


  45 0004 233C1100 		sd	ra,24(sp)
  46 0008 23388100 		sd	s0,16(sp)
  47              		.cfi_offset 1, -8
  48              		.cfi_offset 8, -16
  49 000c 13040102 		addi	s0,sp,32
  50              		.cfi_def_cfa 8, 0
  34:test/userMain.cpp ****     printString("Unesite broj testa? [1-7]\n");
  51              		.loc 1 34 5
  52              		.loc 1 34 16 is_stmt 0
  53 0010 17050000 		lla	a0,.LC0
  53      13050500 
  54 0018 97000000 		call	_Z11printStringPKc@plt
  54      E7800000 
  55              	.LVL0:
  35:test/userMain.cpp ****     volatile int test = getc() - '0';
  56              		.loc 1 35 5 is_stmt 1
  57              		.loc 1 35 29 is_stmt 0
  58 0020 97000000 		call	_Z4getcv@plt
  58      E7800000 
  59              	.LVL1:
  60              		.loc 1 35 32
  61 0028 1B0505FD 		addiw	a0,a0,-48
  62              		.loc 1 35 34
  63 002c 2326A4FE 		sw	a0,-20(s0)
  36:test/userMain.cpp ****     getc(); // Enter posle broja
  64              		.loc 1 36 5 is_stmt 1
  65              		.loc 1 36 9 is_stmt 0
  66 0030 97000000 		call	_Z4getcv@plt
  66      E7800000 
  67              	.LVL2:
  37:test/userMain.cpp **** 
  38:test/userMain.cpp ****     if ((test >= 1 && test <= 2) || test == 7) {
  68              		.loc 1 38 5 is_stmt 1
  69              		.loc 1 38 15 is_stmt 0
  70 0038 8327C4FE 		lw	a5,-20(s0)
  71 003c 9B870700 		sext.w	a5,a5
  72              		.loc 1 38 34
  73 0040 635AF000 		blez	a5,.L2
  74              		.loc 1 38 28 discriminator 1
  75 0044 8327C4FE 		lw	a5,-20(s0)
  76 0048 9B870700 		sext.w	a5,a5
  77              		.loc 1 38 20 discriminator 1
  78 004c 13072000 		li	a4,2
  79 0050 6354F700 		ble	a5,a4,.L3
  80              	.L2:
  81              		.loc 1 38 42 discriminator 4
  82 0054 8327C4FE 		lw	a5,-20(s0)
  83              	.L3:
  39:test/userMain.cpp ****         if (LEVEL_2_IMPLEMENTED == 0) {
  40:test/userMain.cpp ****             printString("Nije navedeno da je zadatak 2 implementiran\n");
  41:test/userMain.cpp ****             return;
  42:test/userMain.cpp ****         }
  43:test/userMain.cpp ****     }
  44:test/userMain.cpp **** 
  45:test/userMain.cpp ****     if (test >= 3 && test <= 4) {
  84              		.loc 1 45 5 is_stmt 1 discriminator 8
  85              		.loc 1 45 14 is_stmt 0 discriminator 8
GAS LISTING /tmp/ccy8Ci8t.s 			page 4


  86 0058 8327C4FE 		lw	a5,-20(s0)
  87 005c 9B870700 		sext.w	a5,a5
  88              		.loc 1 45 19 discriminator 8
  89 0060 13072000 		li	a4,2
  90 0064 6354F700 		ble	a5,a4,.L4
  91              		.loc 1 45 27 discriminator 1
  92 0068 8327C4FE 		lw	a5,-20(s0)
  93              	.L4:
  46:test/userMain.cpp ****         if (LEVEL_3_IMPLEMENTED == 0) {
  47:test/userMain.cpp ****             printString("Nije navedeno da je zadatak 3 implementiran\n");
  48:test/userMain.cpp ****             return;
  49:test/userMain.cpp ****         }
  50:test/userMain.cpp ****     }
  51:test/userMain.cpp **** 
  52:test/userMain.cpp ****     if (test >= 5 && test <= 6) {
  94              		.loc 1 52 5 is_stmt 1 discriminator 6
  95              		.loc 1 52 14 is_stmt 0 discriminator 6
  96 006c 8327C4FE 		lw	a5,-20(s0)
  97 0070 9B870700 		sext.w	a5,a5
  98              		.loc 1 52 19 discriminator 6
  99 0074 13074000 		li	a4,4
 100 0078 635AF700 		ble	a5,a4,.L5
 101              		.loc 1 52 27 discriminator 1
 102 007c 8327C4FE 		lw	a5,-20(s0)
 103 0080 9B870700 		sext.w	a5,a5
 104              		.loc 1 52 19 discriminator 1
 105 0084 13076000 		li	a4,6
 106 0088 6358F702 		ble	a5,a4,.L15
 107              	.L5:
  53:test/userMain.cpp ****         if (LEVEL_4_IMPLEMENTED == 0) {
  54:test/userMain.cpp ****             printString("Nije navedeno da je zadatak 4 implementiran\n");
  55:test/userMain.cpp ****             return;
  56:test/userMain.cpp ****         }
  57:test/userMain.cpp ****     }
  58:test/userMain.cpp **** 
  59:test/userMain.cpp ****     switch (test) {
 108              		.loc 1 59 5 is_stmt 1
 109              		.loc 1 59 13 is_stmt 0
 110 008c 8327C4FE 		lw	a5,-20(s0)
 111 0090 9B870700 		sext.w	a5,a5
 112 0094 13077000 		li	a4,7
 113 0098 636EF70C 		bgtu	a5,a4,.L7
 114 009c 93972700 		slli	a5,a5,2
 115 00a0 17070000 		lla	a4,.L9
 115      13070700 
 116 00a8 B387E700 		add	a5,a5,a4
 117 00ac 83A70700 		lw	a5,0(a5)
 118 00b0 B387E700 		add	a5,a5,a4
 119 00b4 67800700 		jr	a5
 120              		.section	.rodata
 121              		.align	2
 122              		.align	2
 123              	.L9:
 124 0000 00000000 		.word	.L7-.L9
 125 0004 00000000 		.word	.L13-.L9
 126 0008 00000000 		.word	.L12-.L9
 127 000c 00000000 		.word	.L11-.L9
GAS LISTING /tmp/ccy8Ci8t.s 			page 5


 128 0010 00000000 		.word	.L10-.L9
 129 0014 00000000 		.word	.L1-.L9
 130 0018 00000000 		.word	.L1-.L9
 131 001c 00000000 		.word	.L8-.L9
 132              		.text
 133              	.L15:
  53:test/userMain.cpp ****         if (LEVEL_4_IMPLEMENTED == 0) {
 134              		.loc 1 53 9 is_stmt 1
  54:test/userMain.cpp ****             return;
 135              		.loc 1 54 13
  54:test/userMain.cpp ****             return;
 136              		.loc 1 54 24 is_stmt 0
 137 00b8 17050000 		lla	a0,.LC1
 137      13050500 
 138 00c0 97000000 		call	_Z11printStringPKc@plt
 138      E7800000 
 139              	.LVL3:
  55:test/userMain.cpp ****         }
 140              		.loc 1 55 13 is_stmt 1
 141 00c8 6F00C001 		j	.L1
 142              	.L13:
  60:test/userMain.cpp ****         case 1:
 143              		.loc 1 60 9
  61:test/userMain.cpp **** #if LEVEL_2_IMPLEMENTED == 1
  62:test/userMain.cpp ****             Threads_C_API_test();
 144              		.loc 1 62 13
 145              		.loc 1 62 31 is_stmt 0
 146 00cc 97000000 		call	_Z18Threads_C_API_testv@plt
 146      E7800000 
 147              	.LVL4:
  63:test/userMain.cpp ****             printString("TEST 1 (zadatak 2, niti C API i sinhrona promena konteksta)\n");
 148              		.loc 1 63 13 is_stmt 1
 149              		.loc 1 63 24 is_stmt 0
 150 00d4 17050000 		lla	a0,.LC2
 150      13050500 
 151 00dc 97000000 		call	_Z11printStringPKc@plt
 151      E7800000 
 152              	.LVL5:
  64:test/userMain.cpp **** #endif
  65:test/userMain.cpp ****             break;
 153              		.loc 1 65 13 is_stmt 1
 154              	.L1:
  66:test/userMain.cpp ****         case 2:
  67:test/userMain.cpp **** #if LEVEL_2_IMPLEMENTED == 1
  68:test/userMain.cpp ****             Threads_CPP_API_test();
  69:test/userMain.cpp ****             printString("TEST 2 (zadatak 2., niti CPP API i sinhrona promena konteksta)\n");
  70:test/userMain.cpp **** #endif
  71:test/userMain.cpp ****             break;
  72:test/userMain.cpp ****         case 3:
  73:test/userMain.cpp **** #if LEVEL_3_IMPLEMENTED == 1
  74:test/userMain.cpp ****             producerConsumer_C_API();
  75:test/userMain.cpp ****             printString("TEST 3 (zadatak 3., kompletan C API sa semaforima, sinhrona promena kontek
  76:test/userMain.cpp **** #endif
  77:test/userMain.cpp ****             break;
  78:test/userMain.cpp ****         case 4:
  79:test/userMain.cpp **** #if LEVEL_3_IMPLEMENTED == 1
  80:test/userMain.cpp ****             producerConsumer_CPP_Sync_API();
GAS LISTING /tmp/ccy8Ci8t.s 			page 6


  81:test/userMain.cpp ****             printString("TEST 4 (zadatak 3., kompletan CPP API sa semaforima, sinhrona promena kont
  82:test/userMain.cpp **** #endif
  83:test/userMain.cpp ****             break;
  84:test/userMain.cpp ****         case 5:
  85:test/userMain.cpp **** #if LEVEL_4_IMPLEMENTED == 1
  86:test/userMain.cpp ****             testSleeping();
  87:test/userMain.cpp ****             printString("TEST 5 (zadatak 4., thread_sleep test C API)\n");
  88:test/userMain.cpp **** #endif
  89:test/userMain.cpp ****             break;
  90:test/userMain.cpp ****         case 6:
  91:test/userMain.cpp **** #if LEVEL_4_IMPLEMENTED == 1
  92:test/userMain.cpp ****             testConsumerProducer();
  93:test/userMain.cpp ****             printString("TEST 6 (zadatak 4. CPP API i asinhrona promena konteksta)\n");
  94:test/userMain.cpp **** #endif
  95:test/userMain.cpp ****             break;
  96:test/userMain.cpp ****         case 7:
  97:test/userMain.cpp **** #if LEVEL_2_IMPLEMENTED == 1
  98:test/userMain.cpp ****             System_Mode_test();
  99:test/userMain.cpp ****             printString("Test se nije uspesno zavrsio\n");
 100:test/userMain.cpp ****             printString("TEST 7 (zadatak 2., testiranje da li se korisnicki kod izvrsava u korisnic
 101:test/userMain.cpp **** #endif
 102:test/userMain.cpp ****             break;
 103:test/userMain.cpp ****         default:
 104:test/userMain.cpp ****             printString("Niste uneli odgovarajuci broj za test\n");
 105:test/userMain.cpp ****     }
 106:test/userMain.cpp **** }...
 155              		.loc 1 106 1 is_stmt 0
 156 00e4 83308101 		ld	ra,24(sp)
 157              		.cfi_remember_state
 158              		.cfi_restore 1
 159 00e8 03340101 		ld	s0,16(sp)
 160              		.cfi_restore 8
 161              		.cfi_def_cfa 2, 32
 162 00ec 13010102 		addi	sp,sp,32
 163              		.cfi_def_cfa_offset 0
 164 00f0 67800000 		jr	ra
 165              	.L12:
 166              		.cfi_restore_state
  66:test/userMain.cpp ****         case 2:
 167              		.loc 1 66 9 is_stmt 1
  68:test/userMain.cpp ****             Threads_CPP_API_test();
 168              		.loc 1 68 13
  68:test/userMain.cpp ****             Threads_CPP_API_test();
 169              		.loc 1 68 33 is_stmt 0
 170 00f4 97000000 		call	_Z20Threads_CPP_API_testv@plt
 170      E7800000 
 171              	.LVL6:
  69:test/userMain.cpp ****             printString("TEST 2 (zadatak 2., niti CPP API i sinhrona promena konteksta)\n");
 172              		.loc 1 69 13 is_stmt 1
  69:test/userMain.cpp ****             printString("TEST 2 (zadatak 2., niti CPP API i sinhrona promena konteksta)\n");
 173              		.loc 1 69 24 is_stmt 0
 174 00fc 17050000 		lla	a0,.LC3
 174      13050500 
 175 0104 97000000 		call	_Z11printStringPKc@plt
 175      E7800000 
 176              	.LVL7:
  71:test/userMain.cpp ****             break;
GAS LISTING /tmp/ccy8Ci8t.s 			page 7


 177              		.loc 1 71 13 is_stmt 1
 178 010c 6FF09FFD 		j	.L1
 179              	.L11:
  72:test/userMain.cpp ****         case 3:
 180              		.loc 1 72 9
  74:test/userMain.cpp ****             producerConsumer_C_API();
 181              		.loc 1 74 13
  74:test/userMain.cpp ****             producerConsumer_C_API();
 182              		.loc 1 74 35 is_stmt 0
 183 0110 97000000 		call	_Z22producerConsumer_C_APIv@plt
 183      E7800000 
 184              	.LVL8:
  75:test/userMain.cpp ****             printString("TEST 3 (zadatak 3., kompletan C API sa semaforima, sinhrona promena kontek
 185              		.loc 1 75 13 is_stmt 1
  75:test/userMain.cpp ****             printString("TEST 3 (zadatak 3., kompletan C API sa semaforima, sinhrona promena kontek
 186              		.loc 1 75 24 is_stmt 0
 187 0118 17050000 		lla	a0,.LC4
 187      13050500 
 188 0120 97000000 		call	_Z11printStringPKc@plt
 188      E7800000 
 189              	.LVL9:
  77:test/userMain.cpp ****             break;
 190              		.loc 1 77 13 is_stmt 1
 191 0128 6FF0DFFB 		j	.L1
 192              	.L10:
  78:test/userMain.cpp ****         case 4:
 193              		.loc 1 78 9
  80:test/userMain.cpp ****             producerConsumer_CPP_Sync_API();
 194              		.loc 1 80 13
  80:test/userMain.cpp ****             producerConsumer_CPP_Sync_API();
 195              		.loc 1 80 42 is_stmt 0
 196 012c 97000000 		call	_Z29producerConsumer_CPP_Sync_APIv@plt
 196      E7800000 
 197              	.LVL10:
  81:test/userMain.cpp ****             printString("TEST 4 (zadatak 3., kompletan CPP API sa semaforima, sinhrona promena kont
 198              		.loc 1 81 13 is_stmt 1
  81:test/userMain.cpp ****             printString("TEST 4 (zadatak 3., kompletan CPP API sa semaforima, sinhrona promena kont
 199              		.loc 1 81 24 is_stmt 0
 200 0134 17050000 		lla	a0,.LC5
 200      13050500 
 201 013c 97000000 		call	_Z11printStringPKc@plt
 201      E7800000 
 202              	.LVL11:
  83:test/userMain.cpp ****             break;
 203              		.loc 1 83 13 is_stmt 1
 204 0144 6FF01FFA 		j	.L1
 205              	.L8:
  96:test/userMain.cpp ****         case 7:
 206              		.loc 1 96 9
  98:test/userMain.cpp ****             System_Mode_test();
 207              		.loc 1 98 13
  98:test/userMain.cpp ****             System_Mode_test();
 208              		.loc 1 98 29 is_stmt 0
 209 0148 97000000 		call	_Z16System_Mode_testv@plt
 209      E7800000 
 210              	.LVL12:
  99:test/userMain.cpp ****             printString("Test se nije uspesno zavrsio\n");
GAS LISTING /tmp/ccy8Ci8t.s 			page 8


 211              		.loc 1 99 13 is_stmt 1
  99:test/userMain.cpp ****             printString("Test se nije uspesno zavrsio\n");
 212              		.loc 1 99 24 is_stmt 0
 213 0150 17050000 		lla	a0,.LC6
 213      13050500 
 214 0158 97000000 		call	_Z11printStringPKc@plt
 214      E7800000 
 215              	.LVL13:
 100:test/userMain.cpp ****             printString("TEST 7 (zadatak 2., testiranje da li se korisnicki kod izvrsava u korisnic
 216              		.loc 1 100 13 is_stmt 1
 100:test/userMain.cpp ****             printString("TEST 7 (zadatak 2., testiranje da li se korisnicki kod izvrsava u korisnic
 217              		.loc 1 100 24 is_stmt 0
 218 0160 17050000 		lla	a0,.LC7
 218      13050500 
 219 0168 97000000 		call	_Z11printStringPKc@plt
 219      E7800000 
 220              	.LVL14:
 102:test/userMain.cpp ****             break;
 221              		.loc 1 102 13 is_stmt 1
 222 0170 6FF05FF7 		j	.L1
 223              	.L7:
 103:test/userMain.cpp ****         default:
 224              		.loc 1 103 9
 104:test/userMain.cpp ****             printString("Niste uneli odgovarajuci broj za test\n");
 225              		.loc 1 104 13
 104:test/userMain.cpp ****             printString("Niste uneli odgovarajuci broj za test\n");
 226              		.loc 1 104 24 is_stmt 0
 227 0174 17050000 		lla	a0,.LC8
 227      13050500 
 228 017c 97000000 		call	_Z11printStringPKc@plt
 228      E7800000 
 229              	.LVL15:
 230 0184 6FF01FF6 		j	.L1
 231              		.cfi_endproc
 232              	.LFE0:
 234              	.Letext0:
 235              		.file 2 "test/../h/../lib/hw.h"
 236              		.file 3 "test/printing.hpp"
 237              		.file 4 "test/../h/syscall_c.hpp"
 238              		.file 5 "test/../test/Threads_C_API_test.hpp"
 239              		.file 6 "test/../test/Threads_CPP_API_test.hpp"
 240              		.file 7 "test/../test/ConsumerProducer_C_API_test.hpp"
 241              		.file 8 "test/../test/ConsumerProducer_CPP_Sync_API_test.hpp"
 242              		.file 9 "test/../test/System_Mode_test.hpp"
GAS LISTING /tmp/ccy8Ci8t.s 			page 9

